(ideluge.core.torrentmanager
TorrentManagerState
p1
(dp2
S'torrents'
p3
(lp4
(ideluge.core.torrentmanager
TorrentState
p5
(dp6
S'max_download_speed'
p7
F-1
sS'move_completed_path'
p8
S'/home/ak/Downloads'
p9
sS'paused'
p10
I00
sS'max_upload_slots'
p11
I-1
sS'prioritize_first_last'
p12
I00
sS'max_connections'
p13
I-1
sS'compact'
p14
I00
sS'queue'
p15
I2
sS'file_priorities'
p16
(lp17
I4
aI4
aI4
aI4
aI4
aI4
aI4
aI4
aI4
aI4
aI4
aI4
aI4
aI4
aI4
aI4
aI4
aI4
aI4
aI4
aI4
aI4
aI4
aI4
aI4
aI4
aI4
aI4
aI4
aI4
aI4
aI4
aI4
aI4
aI4
aI4
aI4
aI4
aI4
aI4
aI4
aI4
aI4
aI4
aI4
aI4
aI4
aI4
aI4
aI4
aI4
aI4
aI4
aI4
aI4
aI4
aI4
aI4
aI4
aI4
aI4
aI4
aI4
aI4
aI4
aI4
aI4
aI4
aI4
aI4
aI4
aI4
aI4
aI4
aI4
aI4
aI4
aI4
aI4
aI4
aI4
aI4
aI4
aI4
asS'filename'
p18
S'HD \xd0\x9e\xd0\xb1\xd0\xbe\xd0\xb8 \xd0\x9a\xd1\x8d\xd1\x82\xd0\xb8 \xd0\x9f\xd0\xb5\xd1\x80\xd1\x80\xd0\xb8 HD Wallpapers Katy Perry [2560x1440] [84 \xd1\x88\xd1\x82] [rutracker-3406636].torrent'
p19
sS'max_upload_speed'
p20
F-1
sS'save_path'
p21
S'/home/ak/Pictures/Wallpapers'
p22
sS'time_added'
p23
F1556404276.394032
sS'total_uploaded'
p24
I0
sS'torrent_id'
p25
S'c081ec9fd401b2b084dd34556753746651343370'
p26
sS'auto_managed'
p27
I01
sS'stop_at_ratio'
p28
I00
sS'move_completed'
p29
I00
sS'trackers'
p30
(lp31
(dp32
S'send_stats'
p33
I01
sS'fails'
p34
I0
sS'verified'
p35
I00
sS'scrape_incomplete'
p36
I-1
sS'min_announce'
p37
NsS'scrape_downloaded'
p38
I-1
sS'url'
p39
S'http://bt.t-ru.org/ann'
p40
sS'last_error'
p41
(dp42
S'category'
p43
S'system'
p44
sS'value'
p45
I0
ssS'fail_limit'
p46
I0
sS'next_announce'
p47
NsS'complete_sent'
p48
I00
sS'source'
p49
I1
sS'trackerid'
p50
S''
sS'start_sent'
p51
I00
sS'tier'
p52
I0
sS'scrape_complete'
p53
I-1
sS'message'
p54
S''
sS'updating'
p55
I00
sa(dp56
S'send_stats'
p57
I01
sS'fails'
p58
I0
sS'verified'
p59
I00
sS'scrape_incomplete'
p60
I-1
sS'min_announce'
p61
NsS'scrape_downloaded'
p62
I-1
sS'url'
p63
S'http://retracker.local/announce'
p64
sS'last_error'
p65
(dp66
S'category'
p67
S'system'
p68
sS'value'
p69
I0
ssS'fail_limit'
p70
I0
sS'next_announce'
p71
NsS'complete_sent'
p72
I00
sS'source'
p73
I1
sS'trackerid'
p74
S''
sS'start_sent'
p75
I00
sS'tier'
p76
I1
sS'scrape_complete'
p77
I-1
sS'message'
p78
S''
sS'updating'
p79
I00
sasS'magnet'
p80
NsS'remove_at_ratio'
p81
I00
sS'stop_ratio'
p82
F2
sS'is_finished'
p83
I00
sba(ideluge.core.torrentmanager
TorrentState
p84
(dp85
g7
F-1
sg8
S'/home/ak/Downloads'
p86
sg10
I00
sg11
I-1
sg12
I00
sg13
I-1
sg14
I00
sg15
I0
sg16
(lp87
I7
aI0
aI7
aI7
aI7
aI0
aI7
aI7
aI0
aI0
aI0
aI0
aI0
aI0
aI0
aI0
aI7
aI7
aI0
aI7
aI0
aI7
aI0
aI7
aI7
aI0
aI0
aI0
aI0
aI0
aI0
aI0
aI7
aI0
aI7
aI0
aI7
aI0
aI7
aI7
aI0
aI7
aI0
aI0
aI7
aI7
aI0
aI0
aI0
aI7
aI0
aI7
aI7
aI7
aI0
aI0
aI0
aI0
aI0
aI7
aI0
aI0
aI0
aI7
aI7
aI0
aI0
aI7
aI0
aI7
aI0
aI0
aI0
aI7
aI0
aI0
aI7
aI7
aI0
aI7
aI0
aI0
aI0
aI0
aI0
aI0
aI0
aI0
aI7
aI7
aI7
aI0
aI0
aI0
aI0
aI0
aI7
aI7
aI7
aI7
aI7
aI0
aI7
aI7
aI0
aI7
aI0
aI0
aI0
aI7
aI0
aI0
aI0
aI0
aI0
aI0
aI7
aI7
aI0
aI0
aI0
aI7
aI0
aI0
aI0
aI0
aI7
aI0
aI0
aI0
aI0
aI0
aI0
aI0
aI7
aI0
aI0
aI7
aI0
aI0
aI0
aI0
aI0
aI0
aI0
aI0
aI0
aI0
aI0
aI0
aI0
aI7
aI0
aI0
aI0
aI0
aI0
aI7
aI7
aI7
aI0
aI7
aI0
aI7
aI0
aI7
aI0
aI7
aI0
aI0
aI0
aI0
aI0
aI0
aI0
aI7
aI0
aI0
aI0
aI7
aI0
aI0
aI7
aI0
aI0
aI7
aI7
aI7
aI0
aI0
aI7
aI0
aI0
aI7
aI7
aI7
aI0
aI0
aI0
aI0
aI7
aI0
aI0
aI7
aI7
aI0
aI0
aI0
aI0
aI0
aI7
aI0
aI0
aI7
aI7
aI0
aI0
aI0
aI0
aI0
aI0
aI7
aI7
aI0
aI0
aI0
aI0
aI0
aI0
aI0
aI0
aI7
aI7
aI0
aI7
aI7
aI0
aI7
aI0
aI0
aI0
aI0
aI0
aI0
aI0
aI7
aI7
aI0
aI0
aI7
aI7
aI0
aI0
aI7
aI7
aI7
aI7
aI7
aI7
aI7
aI7
aI0
aI7
aI7
aI0
aI0
aI0
aI0
aI0
aI7
aI0
aI7
aI7
aI0
aI0
aI7
aI7
aI0
aI0
aI7
aI0
aI7
aI7
aI0
aI0
aI7
aI7
aI0
aI0
aI0
aI7
aI0
aI0
aI0
aI0
aI0
aI0
aI0
aI0
aI7
aI7
aI7
aI0
aI7
aI0
aI0
aI0
aI0
aI0
aI0
aI0
aI0
aI7
aI0
aI0
aI0
aI0
aI7
aI0
aI7
aI0
aI0
aI0
aI0
aI7
aI0
aI0
aI0
aI0
aI0
aI7
aI0
aI0
aI0
aI7
aI0
aI0
aI0
aI0
aI0
aI0
aI0
aI0
aI0
aI7
aI0
aI0
aI0
aI0
aI0
aI0
aI0
aI0
aI0
aI7
aI0
aI0
aI0
aI7
aI0
aI7
aI0
aI0
aI7
aI0
aI0
aI0
aI0
aI0
aI7
aI0
aI0
aI7
aI0
aI0
aI7
aI0
aI7
aI0
aI0
aI0
aI0
aI0
aI7
aI0
aI0
aI0
aI0
aI0
aI0
aI0
aI0
aI0
aI0
aI0
aI7
aI0
aI0
aI0
aI0
aI0
aI0
aI0
asg18
S'(Punk Rock Hard Rock) Billy Idol - \xd0\x94\xd0\xb8\xd1\x81\xd0\xba\xd0\xbe\xd0\xb3\xd1\x80\xd0\xb0\xd1\x84\xd0\xb8\xd1\x8f (1981-2018) (32 CD), MP3, 128-320 kBps [rutracker-1677998].torrent'
p88
sg20
F-1
sg21
S'/home/ak/Music'
p89
sg23
F1556211915.2675049
sg24
I71993488
sg25
S'3ea7d5339d2c86914552f7eb4ccdc42d816e34ce'
p90
sg27
I01
sg28
I00
sg29
I00
sg30
(lp91
(dp92
S'send_stats'
p93
I01
sS'fails'
p94
I0
sS'verified'
p95
I00
sS'scrape_incomplete'
p96
I-1
sS'min_announce'
p97
NsS'scrape_downloaded'
p98
I-1
sS'url'
p99
S'http://bt2.t-ru.org/ann'
p100
sS'last_error'
p101
(dp102
S'category'
p103
S'system'
p104
sS'value'
p105
I0
ssS'fail_limit'
p106
I0
sS'next_announce'
p107
NsS'complete_sent'
p108
I00
sS'source'
p109
I1
sS'trackerid'
p110
S''
sS'start_sent'
p111
I00
sS'tier'
p112
I0
sS'scrape_complete'
p113
I-1
sS'message'
p114
S''
sS'updating'
p115
I00
sa(dp116
S'send_stats'
p117
I01
sS'fails'
p118
I0
sS'verified'
p119
I00
sS'scrape_incomplete'
p120
I-1
sS'min_announce'
p121
NsS'scrape_downloaded'
p122
I-1
sS'url'
p123
S'http://retracker.local/announce'
p124
sS'last_error'
p125
(dp126
S'category'
p127
S'system'
p128
sS'value'
p129
I0
ssS'fail_limit'
p130
I0
sS'next_announce'
p131
NsS'complete_sent'
p132
I00
sS'source'
p133
I1
sS'trackerid'
p134
S''
sS'start_sent'
p135
I00
sS'tier'
p136
I1
sS'scrape_complete'
p137
I-1
sS'message'
p138
S''
sS'updating'
p139
I00
sasg80
Nsg81
I00
sg82
F2
sg83
I00
sba(ideluge.core.torrentmanager
TorrentState
p140
(dp141
g7
F-1
sg8
S'/home/ak/Downloads'
p142
sg10
I00
sg11
I-1
sg12
I00
sg13
I-1
sg14
I00
sg15
I-1
sg16
(lp143
I4
asg18
S'\xd0\x90\xd0\xbd\xd0\xb0\xd1\x81\xd1\x82\xd0\xb0\xd1\x81\xd0\xb8\xd1\x8f Anastasia (\xd0\x94\xd0\xbe\xd0\xbd \xd0\x91\xd0\xbb\xd0\xb0\xd1\x82 Don Bluth, \xd0\x93\xd0\xb0\xd1\x80\xd0\xb8 \xd0\x93\xd0\xbe\xd0\xbb\xd0\xb4\xd0\xbc\xd0\xb0\xd0\xbd Gary Goldman) [1997, \xd0\x90\xd0\xbd\xd0\xb8\xd0\xbc\xd0\xb0\xd1\x86\xd0\xb8\xd0\xbe\xd0\xbd\xd0\xbd\xd1\x8b\xd0\xb9, \xd0\xbc\xd1\x8e\xd0\xb7\xd0\xb8\xd0\xba\xd0\xbb, \xd0\xb4\xd1\x80\xd0\xb0\xd0\xbc\xd0\xb0, \xd0\xbf\xd1\x80\xd0\xb8\xd0\xba\xd0\xbb\xd1\x8e\xd1\x87\xd0\xb5\xd0\xbd\xd0\xb8\xd1\x8f, \xd1\x81\xd0\xb5\xd0\xbc\xd0\xb5\xd0\xb9\xd0\xbd\xd1\x8b [rutracker-5115675].torrent'
p144
sg20
F-1
sg21
S'/home/ak/Videos'
p145
sg23
F1556286972.2245841
sg24
I0
sg25
S'3b0b0118262238e0876ae51bf3518001102c3014'
p146
sg27
I01
sg28
I00
sg29
I00
sg30
(lp147
(dp148
S'send_stats'
p149
I01
sS'fails'
p150
I0
sS'verified'
p151
I00
sS'scrape_incomplete'
p152
I-1
sS'min_announce'
p153
NsS'scrape_downloaded'
p154
I-1
sS'url'
p155
S'http://bt3.t-ru.org/ann'
p156
sS'last_error'
p157
(dp158
S'category'
p159
S'system'
p160
sS'value'
p161
I0
ssS'fail_limit'
p162
I0
sS'next_announce'
p163
NsS'complete_sent'
p164
I00
sS'source'
p165
I1
sS'trackerid'
p166
S''
sS'start_sent'
p167
I00
sS'tier'
p168
I0
sS'scrape_complete'
p169
I-1
sS'message'
p170
S''
sS'updating'
p171
I00
sa(dp172
S'send_stats'
p173
I01
sS'fails'
p174
I0
sS'verified'
p175
I00
sS'scrape_incomplete'
p176
I-1
sS'min_announce'
p177
NsS'scrape_downloaded'
p178
I-1
sS'url'
p179
S'http://retracker.local/announce'
p180
sS'last_error'
p181
(dp182
S'category'
p183
S'system'
p184
sS'value'
p185
I0
ssS'fail_limit'
p186
I0
sS'next_announce'
p187
NsS'complete_sent'
p188
I00
sS'source'
p189
I1
sS'trackerid'
p190
S''
sS'start_sent'
p191
I00
sS'tier'
p192
I1
sS'scrape_complete'
p193
I-1
sS'message'
p194
S''
sS'updating'
p195
I00
sasg80
Nsg81
I00
sg82
F2
sg83
I01
sba(ideluge.core.torrentmanager
TorrentState
p196
(dp197
g7
F-1
sg8
S'/home/ak/Downloads'
p198
sg10
I00
sg11
I-1
sg12
I00
sg13
I-1
sg14
I00
sg15
I-1
sg16
(lp199
I4
asg18
S'\xd0\x9b\xd0\xb5\xd0\xbe\xd0\xbd Leon (\xd0\x9b\xd1\x8e\xd0\xba \xd0\x91\xd0\xb5\xd1\x81\xd1\x81\xd0\xbe\xd0\xbd Luc Besson) [1994, \xd0\xa4\xd1\x80\xd0\xb0\xd0\xbd\xd1\x86\xd0\xb8\xd1\x8f, \xd0\xb4\xd1\x80\xd0\xb0\xd0\xbc\xd0\xb0, \xd0\xba\xd1\x80\xd0\xb8\xd0\xbc\xd0\xb8\xd0\xbd\xd0\xb0\xd0\xbb, \xd0\xb1\xd0\xbe\xd0\xb5\xd0\xb2\xd0\xb8\xd0\xba, HDRip-AVC] [\xd0\x9c\xd0\xb5\xd0\xb6\xd0\xb4\xd1\x83\xd0\xbd\xd0\xb0\xd1\x80\xd0\xbe\xd0\xb4\xd0\xbd\xd0\xb0\xd1\x8f \xd0\xb2\xd0\xb5\xd1\x80\xd1\x81\xd0\xb8\xd1\x8f International Ve [rutracker-2036497].torrent'
p200
sg20
F-1
sg21
S'/home/ak/Videos'
p201
sg23
F1556400641.6465261
sg24
I0
sg25
S'09de7699b8b99e74f92002d7b7510cb83b0d0b73'
p202
sg27
I01
sg28
I00
sg29
I00
sg30
(lp203
(dp204
S'send_stats'
p205
I01
sS'fails'
p206
I0
sS'verified'
p207
I00
sS'scrape_incomplete'
p208
I-1
sS'min_announce'
p209
NsS'scrape_downloaded'
p210
I-1
sS'url'
p211
S'http://bt2.t-ru.org/ann'
p212
sS'last_error'
p213
(dp214
S'category'
p215
S'system'
p216
sS'value'
p217
I0
ssS'fail_limit'
p218
I0
sS'next_announce'
p219
NsS'complete_sent'
p220
I00
sS'source'
p221
I1
sS'trackerid'
p222
S''
sS'start_sent'
p223
I00
sS'tier'
p224
I0
sS'scrape_complete'
p225
I-1
sS'message'
p226
S''
sS'updating'
p227
I00
sa(dp228
S'send_stats'
p229
I01
sS'fails'
p230
I0
sS'verified'
p231
I00
sS'scrape_incomplete'
p232
I-1
sS'min_announce'
p233
NsS'scrape_downloaded'
p234
I-1
sS'url'
p235
S'http://retracker.local/announce'
p236
sS'last_error'
p237
(dp238
S'category'
p239
S'system'
p240
sS'value'
p241
I0
ssS'fail_limit'
p242
I0
sS'next_announce'
p243
NsS'complete_sent'
p244
I00
sS'source'
p245
I1
sS'trackerid'
p246
S''
sS'start_sent'
p247
I00
sS'tier'
p248
I1
sS'scrape_complete'
p249
I-1
sS'message'
p250
S''
sS'updating'
p251
I00
sasg80
Nsg81
I00
sg82
F2
sg83
I01
sba(ideluge.core.torrentmanager
TorrentState
p252
(dp253
g7
F-1
sg8
S'/home/ak/Downloads'
p254
sg10
I00
sg11
I-1
sg12
I00
sg13
I-1
sg14
I00
sg15
I-1
sg16
(lp255
I4
aI4
aI4
aI4
aI4
aI4
aI4
aI4
aI4
aI4
aI4
aI4
aI4
aI4
aI4
aI4
aI4
aI4
aI4
aI4
aI4
aI4
aI4
aI4
aI4
aI4
aI4
aI4
aI4
aI4
aI4
aI4
aI4
aI4
aI4
aI4
aI4
aI4
aI4
aI4
aI4
aI4
aI4
aI4
aI4
aI4
aI4
aI4
aI4
aI4
aI4
aI4
aI4
aI4
aI4
aI4
aI4
aI4
aI4
aI4
aI4
aI4
aI4
aI4
aI4
aI4
aI4
aI4
aI4
aI4
aI4
aI4
aI4
aI4
aI4
aI4
aI4
aI4
aI4
aI4
aI4
aI4
aI4
aI4
aI4
aI4
aI4
aI4
aI4
aI4
aI4
aI4
aI4
aI4
aI4
aI4
aI4
aI4
aI4
aI4
aI4
aI4
aI4
aI4
aI4
aI4
aI4
aI4
aI4
aI4
aI4
aI4
aI4
aI4
aI4
aI4
aI4
aI4
aI4
aI4
aI4
aI4
aI4
aI4
asg18
S'(Downtempo, Electronic) Emancipator - \xd0\x94\xd0\xb8\xd1\x81\xd0\xba\xd0\xbe\xd0\xb3\xd1\x80\xd0\xb0\xd1\x84\xd0\xb8\xd1\x8f (15 \xd1\x80\xd0\xb5\xd0\xbb\xd0\xb8\xd0\xb7\xd0\xbe\xd0\xb2) 2006-2015, MP3, V0-320 kbps [rutracker-5219409].torrent'
p256
sg20
F-1
sg21
S'/home/ak/Music'
p257
sg23
F1556396721.446286
sg24
I0
sg25
S'2f144e9e2796e3ea89514674355e9e301ef08b86'
p258
sg27
I01
sg28
I00
sg29
I00
sg30
(lp259
(dp260
S'send_stats'
p261
I01
sS'fails'
p262
I0
sS'verified'
p263
I00
sS'scrape_incomplete'
p264
I-1
sS'min_announce'
p265
NsS'source'
p266
I1
sS'url'
p267
S'http://bt2.t-ru.org/ann'
p268
sS'last_error'
p269
(dp270
S'category'
p271
S'system'
p272
sS'value'
p273
I0
ssS'fail_limit'
p274
I0
sS'next_announce'
p275
NsS'complete_sent'
p276
I00
sS'scrape_downloaded'
p277
I-1
sS'trackerid'
p278
S''
sS'start_sent'
p279
I00
sS'tier'
p280
I0
sS'scrape_complete'
p281
I-1
sS'message'
p282
S''
sS'updating'
p283
I00
sa(dp284
S'send_stats'
p285
I01
sS'fails'
p286
I0
sS'verified'
p287
I00
sS'scrape_incomplete'
p288
I-1
sS'min_announce'
p289
NsS'source'
p290
I1
sS'url'
p291
S'http://retracker.local/announce'
p292
sS'last_error'
p293
(dp294
S'category'
p295
S'system'
p296
sS'value'
p297
I0
ssS'fail_limit'
p298
I0
sS'next_announce'
p299
NsS'complete_sent'
p300
I00
sS'scrape_downloaded'
p301
I-1
sS'trackerid'
p302
S''
sS'start_sent'
p303
I00
sS'tier'
p304
I1
sS'scrape_complete'
p305
I-1
sS'message'
p306
S''
sS'updating'
p307
I00
sasg80
Nsg81
I00
sg82
F2
sg83
I01
sba(ideluge.core.torrentmanager
TorrentState
p308
(dp309
g7
F-1
sg8
S'/home/ak/Downloads'
p310
sg10
I00
sg11
I-1
sg12
I00
sg13
I-1
sg14
I00
sg15
I-1
sg16
(lp311
I4
asg18
S'\xd0\x91\xd0\xbe\xd0\xbb\xd1\x8c\xd1\x88\xd0\xbe\xd0\xb9 \xd0\xba\xd1\x83\xd1\x88 Snatch. (\xd0\x93\xd0\xb0\xd0\xb9 \xd0\xa0\xd0\xb8\xd1\x87\xd0\xb8 Guy Ritchie) [2000, \xd0\xa1\xd0\xa8\xd0\x90, \xd0\x92\xd0\xb5\xd0\xbb\xd0\xb8\xd0\xba\xd0\xbe\xd0\xb1\xd1\x80\xd0\xb8\xd1\x82\xd0\xb0\xd0\xbd\xd0\xb8\xd1\x8f, \xd1\x82\xd1\x80\xd0\xb8\xd0\xbb\xd0\xbb\xd0\xb5\xd1\x80, \xd0\xba\xd0\xbe\xd0\xbc\xd0\xb5\xd0\xb4\xd0\xb8\xd1\x8f, \xd0\xba\xd1\x80\xd0\xb8\xd0\xbc\xd0\xb8\xd0\xbd\xd0\xb0\xd0\xbb, BDRip] \xd0\x93\xd0\xbe\xd0\xb1\xd0\xbb\xd0\xb8\xd0\xbd (\xd0\x92\xd0\xb5\xd1\x80\xd1\x81\xd0\xb8\xd1\x8f 2001 [rutracker-1883637].torrent'
p312
sg20
F-1
sg21
S'/home/ak/Videos'
p313
sg23
F1556400000.644696
sg24
I0
sg25
S'3bfc2b1a34f6eb64adb8a009506d2860fea9714a'
p314
sg27
I01
sg28
I00
sg29
I00
sg30
(lp315
(dp316
S'send_stats'
p317
I01
sS'fails'
p318
I0
sS'verified'
p319
I00
sS'scrape_incomplete'
p320
I-1
sS'min_announce'
p321
NsS'scrape_downloaded'
p322
I-1
sS'url'
p323
S'http://bt3.t-ru.org/ann'
p324
sS'last_error'
p325
(dp326
S'category'
p327
S'system'
p328
sS'value'
p329
I0
ssS'fail_limit'
p330
I0
sS'next_announce'
p331
NsS'complete_sent'
p332
I00
sS'source'
p333
I1
sS'trackerid'
p334
S''
sS'start_sent'
p335
I00
sS'tier'
p336
I0
sS'scrape_complete'
p337
I-1
sS'message'
p338
S''
sS'updating'
p339
I00
sa(dp340
S'send_stats'
p341
I01
sS'fails'
p342
I0
sS'verified'
p343
I00
sS'scrape_incomplete'
p344
I-1
sS'min_announce'
p345
NsS'scrape_downloaded'
p346
I-1
sS'url'
p347
S'http://retracker.local/announce'
p348
sS'last_error'
p349
(dp350
S'category'
p351
S'system'
p352
sS'value'
p353
I0
ssS'fail_limit'
p354
I0
sS'next_announce'
p355
NsS'complete_sent'
p356
I00
sS'source'
p357
I1
sS'trackerid'
p358
S''
sS'start_sent'
p359
I00
sS'tier'
p360
I1
sS'scrape_complete'
p361
I-1
sS'message'
p362
S''
sS'updating'
p363
I00
sasg80
Nsg81
I00
sg82
F2
sg83
I01
sba(ideluge.core.torrentmanager
TorrentState
p364
(dp365
g7
F-1
sg8
S'/home/ak/Downloads'
p366
sg10
I00
sg11
I-1
sg12
I00
sg13
I-1
sg14
I00
sg15
I-1
sg16
(lp367
I4
asg18
S'\xd0\x9a\xd0\xb0\xd1\x80\xd1\x82\xd1\x8b, \xd0\xb4\xd0\xb5\xd0\xbd\xd1\x8c\xd0\xb3\xd0\xb8, \xd0\xb4\xd0\xb2\xd0\xb0 \xd1\x81\xd1\x82\xd0\xb2\xd0\xbe\xd0\xbb\xd0\xb0 Lock, Stock and Two Smoking Barrels (\xd0\x93\xd0\xb0\xd0\xb9 \xd0\xa0\xd0\xb8\xd1\x87\xd0\xb8 Guy Ritchie) [1998, \xd0\x92\xd0\xb5\xd0\xbb\xd0\xb8\xd0\xba\xd0\xbe\xd0\xb1\xd1\x80\xd0\xb8\xd1\x82\xd0\xb0\xd0\xbd\xd0\xb8\xd1\x8f, \xd1\x82\xd1\x80\xd0\xb8\xd0\xbb\xd0\xbb\xd0\xb5\xd1\x80, \xd0\xba\xd1\x80\xd0\xb8\xd0\xbc\xd0\xb8\xd0\xbd\xd0\xb0\xd0\xbb, [rutracker-4037402]-1.torrent'
p368
sg20
F-1
sg21
S'/home/ak/Videos'
p369
sg23
F1556400124.975821
sg24
I0
sg25
S'5f04cf07e2744c2604d8c3386dd5bc587f627d43'
p370
sg27
I01
sg28
I00
sg29
I00
sg30
(lp371
(dp372
S'send_stats'
p373
I01
sS'fails'
p374
I0
sS'verified'
p375
I00
sS'scrape_incomplete'
p376
I-1
sS'min_announce'
p377
NsS'scrape_downloaded'
p378
I-1
sS'url'
p379
S'http://bt4.t-ru.org/ann'
p380
sS'last_error'
p381
(dp382
S'category'
p383
S'system'
p384
sS'value'
p385
I0
ssS'fail_limit'
p386
I0
sS'next_announce'
p387
NsS'complete_sent'
p388
I00
sS'source'
p389
I1
sS'trackerid'
p390
S''
sS'start_sent'
p391
I00
sS'tier'
p392
I0
sS'scrape_complete'
p393
I-1
sS'message'
p394
S''
sS'updating'
p395
I00
sa(dp396
S'send_stats'
p397
I01
sS'fails'
p398
I0
sS'verified'
p399
I00
sS'scrape_incomplete'
p400
I-1
sS'min_announce'
p401
NsS'scrape_downloaded'
p402
I-1
sS'url'
p403
S'http://retracker.local/announce'
p404
sS'last_error'
p405
(dp406
S'category'
p407
S'system'
p408
sS'value'
p409
I0
ssS'fail_limit'
p410
I0
sS'next_announce'
p411
NsS'complete_sent'
p412
I00
sS'source'
p413
I1
sS'trackerid'
p414
S''
sS'start_sent'
p415
I00
sS'tier'
p416
I1
sS'scrape_complete'
p417
I-1
sS'message'
p418
S''
sS'updating'
p419
I00
sasg80
Nsg81
I00
sg82
F2
sg83
I01
sba(ideluge.core.torrentmanager
TorrentState
p420
(dp421
g7
F-1
sg8
S'/home/ak/Downloads'
p422
sg10
I00
sg11
I-1
sg12
I00
sg13
I-1
sg14
I00
sg15
I-1
sg16
(lp423
I4
aI4
aI4
aI4
aI4
aI4
aI4
aI4
aI4
aI4
aI4
aI4
aI4
aI4
aI4
aI4
aI4
asg18
S'\xd0\xa2\xd0\xb5\xd0\xbe\xd1\x80\xd0\xb8\xd1\x8f \xd0\xb1\xd0\xbe\xd0\xbb\xd1\x8c\xd1\x88\xd0\xbe\xd0\xb3\xd0\xbe \xd0\xb2\xd0\xb7\xd1\x80\xd1\x8b\xd0\xb2\xd0\xb0 The Big Bang Theory \xd0\xa1\xd0\xb5\xd0\xb7\xd0\xbe\xd0\xbd 1 \xd0\xa1\xd0\xb5\xd1\x80\xd0\xb8\xd0\xb8 1-17 \xd0\xb8\xd0\xb7 17 (\xd0\xa7\xd0\xb0\xd0\xba \xd0\x9b\xd0\xbe\xd1\x80\xd1\x80\xd0\xb8 Chuck Lorre) [2007-2008, \xd0\xa1\xd0\xa8\xd0\x90, \xd0\xba\xd0\xbe\xd0\xbc\xd0\xb5\xd0\xb4\xd0\xb8\xd1\x8f, BD [rutracker-4910017].torrent'
p424
sg20
F-1
sg21
S'/home/ak/Videos'
p425
sg23
F1556215425.0059631
sg24
I200804781
sg25
S'b41869a28dc4d3817d0d33f603e0fb54213495fd'
p426
sg27
I01
sg28
I00
sg29
I00
sg30
(lp427
(dp428
S'send_stats'
p429
I01
sS'fails'
p430
I0
sS'verified'
p431
I00
sS'scrape_incomplete'
p432
I-1
sS'min_announce'
p433
NsS'source'
p434
I1
sS'url'
p435
S'http://bt.t-ru.org/ann'
p436
sS'last_error'
p437
(dp438
S'category'
p439
S'system'
p440
sS'value'
p441
I0
ssS'fail_limit'
p442
I0
sS'next_announce'
p443
NsS'complete_sent'
p444
I00
sS'scrape_downloaded'
p445
I-1
sS'trackerid'
p446
S''
sS'start_sent'
p447
I00
sS'tier'
p448
I0
sS'scrape_complete'
p449
I-1
sS'message'
p450
S''
sS'updating'
p451
I00
sa(dp452
S'send_stats'
p453
I01
sS'fails'
p454
I0
sS'verified'
p455
I00
sS'scrape_incomplete'
p456
I-1
sS'min_announce'
p457
NsS'source'
p458
I1
sS'url'
p459
S'http://retracker.local/announce'
p460
sS'last_error'
p461
(dp462
S'category'
p463
S'system'
p464
sS'value'
p465
I0
ssS'fail_limit'
p466
I0
sS'next_announce'
p467
NsS'complete_sent'
p468
I00
sS'scrape_downloaded'
p469
I-1
sS'trackerid'
p470
S''
sS'start_sent'
p471
I00
sS'tier'
p472
I1
sS'scrape_complete'
p473
I-1
sS'message'
p474
S''
sS'updating'
p475
I00
sasg80
Nsg81
I00
sg82
F2
sg83
I01
sba(ideluge.core.torrentmanager
TorrentState
p476
(dp477
g7
F-1
sg8
S'/home/ak/Downloads'
p478
sg10
I00
sg11
I-1
sg12
I00
sg13
I-1
sg14
I00
sg15
I-1
sg16
(lp479
I4
asg18
S'\xd0\x9a\xd0\x90\xd0\xa7\xd0\x95\xd0\xa1\xd0\xa2\xd0\x92\xd0\x95\xd0\x9d\xd0\x9d\xd0\xab\xd0\x95 \xd0\x9e\xd0\x91\xd0\x9e\xd0\x98 NEW WALLPAPERS \xe2\x84\x967 [rutracker-1418980].torrent'
p480
sg20
F-1
sg21
S'/home/ak/Pictures/Wallpapers'
p481
sg23
F1556404070.2134659
sg24
I0
sg25
S'a11cbeeca8e21ebcf88cafd3120cff4c88e30c96'
p482
sg27
I01
sg28
I00
sg29
I00
sg30
(lp483
(dp484
S'send_stats'
p485
I01
sS'fails'
p486
I0
sS'verified'
p487
I00
sS'scrape_incomplete'
p488
I-1
sS'min_announce'
p489
NsS'scrape_downloaded'
p490
I-1
sS'url'
p491
S'http://bt2.t-ru.org/ann'
p492
sS'last_error'
p493
(dp494
S'category'
p495
S'system'
p496
sS'value'
p497
I0
ssS'fail_limit'
p498
I0
sS'next_announce'
p499
NsS'complete_sent'
p500
I00
sS'source'
p501
I1
sS'trackerid'
p502
S''
sS'start_sent'
p503
I00
sS'tier'
p504
I0
sS'scrape_complete'
p505
I-1
sS'message'
p506
S''
sS'updating'
p507
I00
sa(dp508
S'send_stats'
p509
I01
sS'fails'
p510
I0
sS'verified'
p511
I00
sS'scrape_incomplete'
p512
I-1
sS'min_announce'
p513
NsS'scrape_downloaded'
p514
I-1
sS'url'
p515
S'http://retracker.local/announce'
p516
sS'last_error'
p517
(dp518
S'category'
p519
S'system'
p520
sS'value'
p521
I0
ssS'fail_limit'
p522
I0
sS'next_announce'
p523
NsS'complete_sent'
p524
I00
sS'source'
p525
I1
sS'trackerid'
p526
S''
sS'start_sent'
p527
I00
sS'tier'
p528
I1
sS'scrape_complete'
p529
I-1
sS'message'
p530
S''
sS'updating'
p531
I00
sasg80
Nsg81
I00
sg82
F2
sg83
I01
sba(ideluge.core.torrentmanager
TorrentState
p532
(dp533
g7
F-1
sg8
S'/home/ak/Downloads'
p534
sg10
I00
sg11
I-1
sg12
I00
sg13
I-1
sg14
I00
sg15
I4
sg16
(lp535
I4
aI4
aI4
aI4
aI4
aI4
aI4
aI4
aI4
aI4
aI4
aI4
aI4
aI4
aI4
aI4
aI4
aI4
aI4
aI4
aI4
aI4
aI4
aI4
aI4
aI4
aI4
aI4
aI4
aI4
aI4
aI4
aI4
aI4
aI4
aI4
aI4
aI4
aI4
aI4
aI4
aI4
aI4
aI4
aI4
aI4
aI4
aI4
aI4
aI4
aI4
aI4
aI4
aI4
aI4
aI4
aI4
aI4
aI4
aI4
aI4
aI4
aI4
aI4
aI4
aI4
aI4
aI4
aI4
aI4
aI4
aI4
aI4
aI4
aI4
aI4
aI4
aI4
aI4
aI4
aI4
aI4
aI4
aI4
aI4
aI4
aI4
aI4
aI4
aI4
aI4
aI4
aI4
aI4
aI4
aI4
aI4
aI4
aI4
aI4
aI4
aI4
aI4
aI4
aI4
aI4
aI4
aI4
aI4
aI4
aI4
aI4
aI4
aI4
aI4
aI4
aI4
aI4
aI4
aI4
aI4
aI4
aI4
aI4
aI4
aI4
aI4
aI4
aI4
aI4
aI4
aI4
aI4
aI4
aI4
aI4
aI4
aI4
aI4
aI4
aI4
aI4
aI4
aI4
aI4
aI4
aI4
aI4
aI4
aI4
aI4
aI4
aI4
aI4
aI4
aI4
aI4
aI4
aI4
aI4
aI4
aI4
aI4
aI4
aI4
aI4
aI4
aI4
aI4
aI4
aI4
aI4
aI4
aI4
aI4
aI4
aI4
aI4
aI4
aI4
aI4
aI4
aI4
aI4
aI4
aI4
aI4
aI4
aI4
aI4
aI4
aI4
aI4
aI4
aI4
aI4
aI4
aI4
aI4
aI4
aI4
aI4
aI4
aI4
aI4
aI4
aI4
aI4
aI4
aI4
aI4
aI4
aI4
aI4
aI4
aI4
aI4
aI4
aI4
aI4
aI4
aI4
aI4
aI4
aI4
aI4
aI4
aI4
aI4
aI4
aI4
aI4
aI4
aI4
aI4
aI4
aI4
aI4
aI4
aI4
aI4
aI4
aI4
aI4
aI4
aI4
aI4
aI4
aI4
aI4
aI4
aI4
aI4
aI4
aI4
aI4
aI4
aI4
aI4
aI4
aI7
aI4
aI4
aI4
aI7
aI4
aI4
aI4
aI4
aI4
aI4
aI4
aI4
aI4
aI4
aI4
aI4
aI4
aI4
aI4
aI4
aI4
aI4
aI4
aI4
aI4
aI4
aI4
aI4
aI4
aI4
aI4
aI4
aI4
aI4
aI4
aI4
aI4
aI4
aI4
aI4
aI4
aI4
aI4
aI4
aI4
aI4
aI4
aI4
aI4
aI4
aI4
aI4
aI4
aI4
aI4
aI4
aI4
aI4
aI4
aI4
aI4
aI4
aI4
aI7
aI4
aI4
aI4
aI4
aI4
aI4
aI4
aI4
aI4
aI4
aI4
aI4
aI4
aI4
aI4
aI4
aI4
aI4
aI4
aI4
aI4
aI4
aI4
aI4
aI4
aI4
aI4
aI4
aI4
aI4
aI4
aI4
aI4
aI7
aI7
aI4
aI4
aI4
aI4
aI4
aI4
aI4
aI4
aI4
aI4
aI4
aI4
aI4
aI4
aI4
aI4
aI4
aI4
aI4
aI4
aI4
aI4
aI4
aI4
aI4
aI4
aI4
aI4
aI4
aI4
aI4
aI4
aI4
aI4
aI4
aI4
aI4
aI4
aI4
aI4
aI4
aI4
aI4
aI4
aI4
aI4
aI4
aI4
aI4
aI4
aI4
aI7
aI4
aI4
aI7
aI4
aI4
aI4
aI4
aI4
aI4
aI4
aI4
aI4
aI4
aI4
aI4
aI4
aI4
aI4
aI4
aI4
aI4
aI4
aI4
aI4
aI4
aI4
aI4
aI4
aI4
aI4
aI4
aI4
aI4
aI4
aI4
aI4
aI4
aI4
aI4
aI4
aI4
aI4
aI4
aI4
aI4
aI4
aI4
aI4
aI4
aI4
aI4
aI4
aI7
aI4
aI4
aI4
aI4
aI4
aI4
aI4
aI4
aI4
aI4
aI4
aI4
aI4
aI7
aI4
aI4
aI4
aI4
aI7
aI4
aI4
aI4
aI4
aI4
aI4
aI7
aI7
aI4
aI4
aI4
aI4
aI4
aI7
aI4
aI4
aI4
aI4
aI4
aI4
aI4
aI4
aI7
aI4
aI4
aI4
aI4
aI4
aI4
aI4
aI4
aI4
aI4
aI4
aI4
aI4
aI4
aI4
aI4
aI4
aI4
aI4
aI4
aI4
aI4
aI4
aI4
aI4
aI4
aI4
aI4
aI4
aI4
aI4
aI4
aI4
aI4
aI4
aI4
aI4
aI4
aI4
aI4
aI4
aI4
aI4
aI4
aI4
aI4
aI4
aI7
aI4
aI4
aI4
aI4
aI4
aI4
aI4
aI4
aI4
aI7
aI4
aI4
aI4
aI4
aI7
aI4
aI4
aI4
aI4
aI4
aI7
aI4
aI7
aI7
aI4
aI4
aI4
aI4
aI4
aI4
aI4
aI4
aI4
aI4
aI4
aI4
aI4
aI4
aI4
aI4
aI4
aI4
aI7
aI4
aI4
aI7
aI4
aI4
aI4
aI4
aI4
aI7
aI4
aI4
aI4
aI4
aI4
aI4
aI4
aI4
aI4
aI4
aI4
aI4
aI4
aI4
aI4
aI4
aI4
aI4
aI4
aI7
aI4
aI4
aI7
aI4
aI4
aI4
aI4
aI4
aI7
aI4
aI4
aI4
aI4
aI4
aI4
aI4
aI4
aI4
aI4
aI4
aI7
aI4
aI4
aI4
aI4
aI4
aI7
aI7
aI4
aI4
aI7
aI4
aI4
aI7
aI4
aI4
aI4
aI4
aI4
aI4
aI7
aI4
aI4
aI4
aI4
aI4
aI7
aI4
aI4
aI4
aI4
aI4
aI7
aI4
aI7
aI4
aI4
aI4
aI4
aI7
aI4
aI4
aI4
aI4
aI4
aI4
aI4
aI4
aI4
aI7
aI4
aI7
aI4
aI4
aI4
aI4
aI4
aI4
aI4
aI4
aI7
aI4
aI4
aI4
aI7
aI7
aI4
aI4
aI7
aI7
aI4
aI7
aI4
aI4
aI4
aI4
aI4
aI4
aI4
aI7
aI4
aI4
aI4
aI4
aI4
aI4
aI7
aI7
aI4
aI4
aI4
aI4
aI4
aI4
aI4
aI4
aI4
aI4
aI4
aI4
aI4
aI4
aI4
aI4
aI7
aI4
aI4
aI4
aI4
aI4
aI7
aI4
aI4
aI4
aI4
aI4
aI4
aI7
aI4
aI7
aI7
aI4
aI4
aI4
aI4
aI4
aI4
aI7
aI7
aI4
aI4
aI4
aI4
aI4
aI4
aI4
aI4
aI4
aI4
aI4
aI4
aI4
aI7
aI4
aI4
aI4
aI4
aI4
aI4
aI4
aI4
aI4
aI4
aI4
aI4
aI4
aI4
aI7
aI7
aI4
aI4
aI4
aI4
aI4
aI4
aI4
aI7
aI4
aI4
aI7
aI4
aI4
aI4
aI4
aI4
aI4
aI4
aI4
aI4
aI4
aI4
aI4
aI4
aI4
aI4
aI4
aI7
aI4
aI4
aI4
aI4
aI7
aI4
aI7
aI4
aI7
aI4
aI4
aI4
aI4
aI7
aI4
aI4
aI4
aI4
aI4
aI7
aI4
aI7
aI4
aI4
aI4
aI7
aI4
aI4
aI4
aI4
aI4
aI4
aI4
aI4
aI7
aI7
aI4
aI4
aI4
aI7
aI4
aI4
aI7
aI4
aI4
aI4
aI4
aI4
aI4
aI4
aI4
aI4
aI4
aI4
aI7
aI4
aI4
aI4
aI7
aI4
aI4
aI7
aI4
aI7
aI4
aI4
aI4
aI4
aI4
aI4
aI4
aI7
aI4
aI4
aI4
aI4
aI7
aI4
aI4
aI4
aI4
aI7
aI4
aI4
aI4
aI4
aI7
aI4
aI7
aI7
aI4
aI4
aI4
aI4
aI4
aI4
aI4
aI4
aI4
aI4
aI7
aI4
aI4
aI4
aI4
aI4
aI4
aI4
aI4
aI4
aI4
aI4
aI4
aI4
aI4
aI4
aI4
aI4
aI4
aI4
aI4
aI7
aI7
aI4
aI4
aI4
aI4
aI4
aI4
aI4
aI4
aI7
aI4
aI4
aI4
aI4
aI7
aI4
aI4
aI4
aI4
aI4
aI4
aI4
aI4
aI7
aI4
aI4
aI4
aI7
aI4
aI4
aI4
aI7
aI4
aI4
aI4
aI4
aI4
aI4
aI4
aI4
aI4
aI4
aI4
aI4
aI7
aI4
aI4
aI4
aI4
aI4
aI4
aI4
aI7
aI4
aI4
aI4
aI4
aI7
aI7
aI4
aI4
aI4
aI4
aI7
aI4
aI7
aI4
aI4
aI4
aI4
aI4
aI4
aI4
aI4
aI4
aI4
aI7
aI4
aI4
aI4
aI4
aI4
aI7
aI4
aI4
aI4
aI4
aI4
aI7
aI4
aI4
aI4
aI7
aI4
aI4
aI4
aI7
aI4
aI4
aI4
aI4
aI4
aI4
aI4
aI4
aI4
aI4
aI4
aI4
aI4
aI4
aI4
aI4
aI4
aI4
aI4
aI4
aI7
aI4
aI4
aI4
aI4
aI7
aI4
aI4
aI4
aI4
aI4
aI7
aI4
aI4
aI4
aI4
aI4
aI4
aI4
aI4
aI7
aI4
aI7
aI4
aI4
aI4
aI4
aI4
aI4
aI4
aI4
aI4
aI4
aI4
aI7
aI4
aI4
aI4
aI4
aI4
aI4
aI4
aI4
aI4
aI4
aI4
aI4
aI4
aI4
aI7
aI4
aI4
aI4
aI4
aI4
aI4
aI4
aI4
aI4
aI4
aI7
aI4
aI4
aI4
aI4
aI4
aI4
aI4
aI4
aI4
aI4
aI4
aI4
aI4
aI4
aI4
aI4
aI4
aI4
aI4
aI4
aI4
aI4
aI4
aI4
aI4
aI4
aI4
aI4
aI4
aI7
aI4
aI4
aI4
aI4
aI4
aI4
aI4
aI7
aI4
aI4
aI4
aI7
aI4
aI4
aI4
aI4
aI4
aI7
aI4
aI4
aI4
aI4
aI7
aI4
aI4
aI4
aI4
aI4
aI4
aI4
aI7
aI4
aI4
aI4
aI7
aI4
aI4
aI4
aI4
aI7
aI4
aI4
aI4
aI4
aI4
aI4
aI4
aI4
aI4
aI4
aI4
aI4
aI4
aI7
aI4
aI4
aI4
aI4
aI4
aI4
aI4
aI4
aI4
aI4
aI4
aI4
aI4
aI4
aI4
aI7
aI7
aI4
aI4
aI4
aI4
aI4
aI4
aI4
aI4
aI4
aI4
aI4
aI4
aI4
aI4
aI4
aI7
aI7
aI4
aI4
aI4
aI4
aI4
aI4
aI4
aI4
aI4
aI4
aI4
aI4
aI4
aI4
aI4
aI4
aI4
aI4
aI4
aI4
aI4
aI4
aI4
aI7
aI4
aI4
aI4
aI4
aI4
aI4
aI4
aI4
aI4
aI4
aI4
aI4
aI4
aI4
aI4
aI4
aI7
aI4
aI4
aI4
aI4
aI4
aI4
aI4
aI4
aI7
aI4
aI4
aI4
aI4
aI4
aI4
aI4
aI4
aI4
aI4
aI4
aI4
aI4
aI4
aI4
aI7
aI4
aI4
aI4
aI4
aI4
aI4
aI4
aI4
aI4
aI7
aI4
aI7
aI4
aI4
aI4
aI4
aI4
aI4
aI7
aI4
aI4
aI4
aI4
aI4
aI4
aI4
aI4
aI4
aI4
aI4
aI4
aI4
aI4
aI4
aI4
aI4
aI4
aI4
aI4
aI4
aI4
aI4
aI4
aI4
aI4
aI4
aI4
aI4
aI4
aI4
aI4
aI4
aI4
aI7
aI4
aI4
aI4
aI4
aI4
aI4
aI7
aI4
aI4
aI7
aI4
aI7
aI4
aI4
aI4
aI4
aI4
aI4
aI4
aI4
aI7
aI4
aI4
aI4
aI4
aI4
aI4
aI7
aI7
aI4
aI4
aI4
aI4
aI7
aI4
aI7
aI4
aI4
aI4
aI4
aI4
aI4
aI7
aI4
aI4
aI4
aI4
aI4
aI4
aI4
aI4
aI4
aI4
aI4
aI4
aI4
aI4
aI4
aI4
aI4
aI4
aI4
aI4
aI4
aI7
aI4
aI7
aI4
aI4
aI4
aI7
aI4
aI4
aI4
aI4
aI4
aI4
aI4
aI7
aI4
aI4
aI4
aI4
aI4
aI4
aI4
aI7
aI4
aI4
aI4
aI4
aI7
aI4
aI7
aI4
aI4
aI4
aI7
aI4
aI4
aI7
aI4
aI4
aI7
aI4
aI7
aI4
aI4
aI4
aI4
aI7
aI7
aI4
aI4
aI4
aI4
aI4
aI7
aI4
aI4
aI4
aI4
aI4
aI4
aI7
aI4
aI4
aI4
aI4
aI4
aI4
aI4
aI4
aI4
aI4
aI7
aI4
aI4
aI4
aI4
aI4
aI4
aI7
aI4
aI4
aI4
aI4
aI4
aI4
aI4
aI4
aI4
aI4
aI4
aI4
aI7
aI7
aI4
aI4
aI4
aI4
aI4
aI4
aI4
aI4
aI4
aI4
aI4
aI4
aI4
aI4
aI4
aI4
aI7
aI4
aI4
aI7
aI4
aI4
aI4
aI4
aI4
aI4
aI4
aI4
aI4
aI7
aI4
aI4
aI4
aI4
aI4
aI7
aI4
aI4
aI4
aI7
aI4
aI7
aI7
aI7
aI4
aI4
aI4
aI4
aI4
aI4
aI4
aI4
aI7
aI4
aI4
aI4
aI4
aI4
aI4
aI4
aI4
aI4
aI4
aI4
aI4
aI4
aI4
aI7
aI4
aI4
aI4
aI4
aI4
aI4
aI4
aI4
aI4
aI4
aI7
aI4
aI4
aI4
aI4
aI4
aI4
aI4
aI4
aI4
aI4
aI4
aI4
aI4
aI4
aI4
aI4
aI4
aI4
aI7
aI4
aI4
aI4
aI4
aI4
aI4
aI4
aI7
aI4
aI4
aI4
aI4
aI4
aI4
aI7
aI4
aI4
aI4
aI7
aI4
aI4
aI4
aI4
aI7
aI4
aI4
aI4
aI4
aI4
aI4
aI7
aI4
aI4
aI4
aI4
aI4
aI4
aI4
aI4
aI4
aI7
aI4
aI4
aI4
aI4
aI4
aI4
aI4
aI4
aI4
aI4
aI4
aI4
aI4
aI4
aI4
aI4
aI4
aI4
aI4
aI4
aI4
aI4
aI4
aI4
aI4
aI4
aI4
aI4
aI4
aI4
aI7
aI4
aI4
aI4
aI4
aI4
aI4
aI4
aI4
aI4
aI4
aI7
aI4
aI7
aI4
aI4
aI4
aI4
aI4
aI4
aI7
aI4
aI4
aI4
aI4
aI4
aI4
aI4
aI7
aI4
aI4
aI4
aI7
aI4
aI4
aI4
aI4
aI4
aI4
aI4
aI7
aI4
aI4
aI4
aI4
aI4
aI4
aI4
aI4
aI4
aI4
aI4
aI4
aI4
aI4
aI4
aI4
aI7
aI4
aI4
aI4
aI7
aI4
aI4
aI4
aI4
aI4
aI4
aI4
aI4
aI4
aI4
aI4
aI4
aI7
aI4
aI7
aI4
aI4
aI4
aI4
aI4
aI4
aI4
aI7
aI4
aI4
aI4
aI4
aI4
aI4
aI4
aI4
aI4
aI4
aI4
aI4
aI7
aI4
aI4
aI4
aI4
aI4
aI4
aI4
aI4
aI4
aI4
aI4
aI4
aI4
aI4
aI4
aI4
aI4
aI7
aI4
aI4
aI4
aI4
aI4
aI4
aI4
aI7
aI4
aI4
aI4
aI4
aI4
aI4
aI4
aI4
aI4
aI4
aI4
aI7
aI4
aI4
aI7
aI4
aI4
aI4
aI4
aI4
aI4
aI4
aI4
aI4
aI7
aI4
aI4
aI4
aI4
aI4
aI4
aI4
aI4
aI7
aI7
aI4
aI7
aI4
aI4
aI4
aI4
aI4
aI4
aI4
aI4
aI4
aI7
aI4
aI4
aI4
aI4
aI4
aI4
aI4
aI4
aI7
aI4
aI4
aI4
aI4
aI4
aI4
aI7
aI4
aI4
aI4
aI4
aI4
aI4
aI7
aI4
aI4
aI4
aI7
aI4
aI4
aI4
aI4
aI4
aI4
aI4
aI4
aI4
aI4
aI4
aI4
aI4
aI4
aI4
aI4
aI4
aI4
aI4
aI4
aI4
aI4
aI4
aI4
aI4
aI4
aI4
aI4
aI4
aI4
aI4
aI4
aI7
aI4
aI7
aI4
aI4
aI4
aI4
aI7
aI4
aI4
aI4
aI4
aI4
aI4
aI4
aI4
aI4
aI4
aI4
aI4
aI4
aI4
aI4
aI4
aI4
aI4
aI4
aI4
aI4
aI4
aI4
aI4
aI7
aI4
aI7
aI4
aI4
aI4
aI4
aI4
aI4
aI7
aI4
aI4
aI4
aI4
aI4
aI7
aI4
aI4
aI7
aI4
aI4
aI4
aI4
aI4
aI4
aI7
aI4
aI4
aI4
aI4
aI4
aI4
aI4
aI4
aI4
aI4
aI4
aI4
aI4
aI4
aI4
aI4
aI4
aI4
aI4
aI4
aI4
aI7
aI4
aI4
aI4
aI4
aI4
aI4
aI4
aI4
aI7
aI4
aI4
aI7
aI7
aI4
aI7
aI4
aI4
aI4
aI4
aI4
aI7
aI4
aI4
aI4
aI4
aI4
aI4
aI4
aI4
aI4
aI4
aI4
aI4
aI4
aI4
aI4
aI4
aI7
aI4
aI4
aI4
aI4
aI4
aI4
aI4
aI4
aI4
aI4
aI4
aI4
aI4
aI4
aI4
aI4
aI4
aI4
aI4
aI4
aI4
aI4
aI4
aI4
aI4
aI4
aI4
aI4
aI4
aI4
aI4
aI4
aI4
aI4
aI4
aI4
aI4
aI4
aI4
aI4
aI4
aI4
aI4
aI4
aI4
aI4
aI4
aI4
aI4
aI7
aI4
aI4
aI4
aI7
aI4
aI4
aI4
aI4
aI4
aI4
aI4
aI4
aI4
aI7
aI4
aI4
aI4
aI4
aI4
aI4
aI4
aI4
aI4
aI4
aI4
aI4
aI4
aI4
aI4
aI4
aI4
aI4
aI4
aI7
aI4
aI4
aI4
aI4
aI4
aI4
aI4
aI4
aI4
aI4
aI4
aI4
aI4
aI4
aI4
aI4
aI4
aI4
aI4
aI4
aI4
aI7
aI4
aI4
aI4
aI4
aI4
aI4
aI4
aI7
aI7
aI4
aI4
aI4
aI4
aI4
aI4
aI4
aI4
aI7
aI4
aI4
aI7
aI4
aI4
aI4
aI4
aI4
aI4
aI7
aI4
aI4
aI4
aI4
aI4
aI4
aI4
aI4
aI4
aI4
aI4
aI4
aI4
aI4
aI4
aI4
aI4
aI4
aI7
aI7
aI4
aI4
aI4
aI4
aI4
aI4
aI4
aI4
aI4
aI4
aI4
aI4
aI4
aI4
aI4
aI4
aI4
aI4
aI4
aI7
aI4
aI7
aI4
aI4
aI4
aI4
aI4
aI4
aI7
aI4
aI4
aI4
aI7
aI4
aI4
aI4
aI4
aI4
aI4
aI4
aI7
aI4
aI4
aI4
aI4
aI4
aI4
aI4
aI4
aI4
aI4
aI4
aI4
aI4
aI4
aI4
aI4
aI7
aI4
aI4
aI4
aI4
aI4
aI4
aI4
aI4
aI4
aI4
aI4
aI4
aI4
aI4
aI4
aI4
aI4
aI4
aI7
aI4
aI7
aI4
aI4
aI4
aI4
aI4
aI7
aI4
aI4
aI4
aI4
aI4
aI4
aI7
aI4
aI4
aI4
aI4
aI4
aI4
aI4
aI4
aI4
aI4
aI4
aI4
aI4
aI4
aI4
aI4
aI4
aI4
aI4
aI4
aI4
aI4
aI4
aI4
aI4
aI4
aI4
aI4
aI4
aI4
aI4
aI4
aI4
aI4
aI4
aI4
aI7
aI4
aI4
aI4
aI4
aI4
aI4
aI4
aI4
aI4
aI4
aI4
aI4
aI4
aI7
aI7
aI4
aI4
aI4
aI4
aI4
aI4
aI4
aI7
aI4
aI4
aI4
aI4
aI4
aI4
aI4
aI4
aI4
aI4
aI4
aI4
aI4
aI4
aI4
aI4
aI4
aI4
aI4
aI4
aI4
aI4
aI4
aI4
aI4
aI4
aI4
aI4
aI4
aI4
aI4
aI4
aI4
aI4
aI4
aI7
aI4
aI4
aI4
aI4
aI4
aI4
aI4
aI4
aI4
aI4
aI4
aI4
aI4
aI4
aI4
aI4
aI4
aI4
aI4
aI4
aI4
aI4
aI4
aI4
aI4
aI4
aI4
aI4
aI4
aI4
aI4
aI4
aI4
aI4
aI4
aI4
aI4
aI4
aI4
aI4
aI4
aI4
aI4
aI4
aI7
aI4
aI4
aI4
aI4
aI4
aI4
aI4
aI4
aI4
aI4
aI7
aI4
aI4
aI4
aI4
aI7
aI4
aI4
aI4
aI4
aI4
aI4
aI4
aI4
aI4
aI4
aI7
aI4
aI4
aI4
aI7
aI4
aI4
aI4
aI4
aI4
aI4
aI4
aI4
aI4
aI4
aI4
aI4
aI4
aI4
aI4
aI4
aI4
aI4
aI4
aI4
aI4
aI4
aI4
aI4
aI4
aI4
aI4
aI4
aI4
aI4
aI4
aI4
aI4
aI4
aI4
aI4
aI4
aI4
aI4
aI4
aI4
aI4
aI4
aI4
aI4
aI4
aI4
aI4
aI4
aI4
aI4
aI4
aI4
aI4
aI4
aI4
aI4
aI4
aI4
aI4
aI4
aI4
aI4
aI4
aI4
aI4
aI4
aI4
aI4
aI4
aI4
aI4
aI4
aI4
aI4
aI4
aI4
aI4
aI4
aI4
aI4
aI4
aI4
aI4
aI4
aI4
aI4
aI4
aI4
aI4
aI4
aI4
aI4
aI4
aI4
aI4
aI4
aI4
aI4
aI4
aI4
aI4
aI4
aI4
aI4
aI4
aI4
aI4
aI4
aI4
aI4
aI4
aI4
aI4
aI4
aI7
aI4
aI4
aI4
aI7
aI4
aI4
aI4
aI4
aI4
aI4
aI4
aI4
aI4
aI4
aI4
aI4
aI4
aI4
aI4
aI4
aI4
aI4
aI4
aI4
aI4
aI4
aI4
aI4
aI4
aI4
aI7
aI4
aI4
aI4
aI4
aI4
aI4
aI4
aI4
aI4
aI7
aI4
aI4
aI4
aI4
aI4
aI4
aI4
aI4
aI4
aI4
aI4
aI4
aI7
aI7
aI4
aI4
aI4
aI4
aI4
aI4
aI4
aI4
aI4
aI4
aI4
aI4
aI4
aI4
aI4
aI4
aI4
aI4
aI4
aI4
aI7
aI4
aI4
aI4
aI4
aI7
aI4
aI4
aI4
aI4
aI4
aI4
aI4
aI4
aI4
aI4
aI4
aI4
aI4
aI4
aI4
aI4
aI4
aI4
aI4
aI4
aI4
aI4
aI4
aI4
aI4
aI4
aI4
aI4
aI4
aI4
aI4
aI4
aI4
aI7
aI4
aI4
aI4
aI4
aI4
aI4
aI4
aI4
aI4
aI4
aI4
aI4
aI4
aI4
aI4
aI4
aI4
aI4
aI4
aI4
aI4
aI4
aI4
aI4
aI4
aI4
aI4
aI4
aI4
aI4
aI4
aI4
aI4
aI4
aI4
aI4
aI4
aI4
aI4
aI4
aI4
aI4
aI7
aI4
aI4
aI4
aI4
aI4
aI4
aI4
aI4
aI4
aI4
aI4
aI4
aI4
aI4
aI4
aI4
aI4
aI4
aI4
aI4
aI4
aI4
aI4
aI4
aI4
aI4
aI4
aI4
aI4
aI4
aI4
aI4
aI4
aI4
aI4
aI4
aI4
aI4
aI4
aI4
aI4
aI4
aI4
aI4
aI4
aI4
aI4
aI4
aI4
aI4
aI4
aI4
aI4
aI4
aI4
aI4
aI4
aI4
aI4
aI4
aI7
aI4
aI4
aI4
aI4
aI4
aI4
aI4
aI4
aI4
aI4
aI4
aI4
aI4
aI4
aI4
aI4
aI4
aI4
aI4
aI4
aI4
aI4
aI4
aI4
aI4
aI4
aI4
aI4
aI4
aI4
aI4
aI4
aI4
aI4
aI4
aI4
aI4
aI7
aI4
aI4
aI4
aI4
aI4
aI4
aI4
aI4
aI4
aI4
aI4
aI4
aI4
aI4
aI4
aI4
aI4
aI4
aI4
aI4
aI4
aI4
aI4
aI4
aI4
aI4
aI4
aI4
aI4
aI4
aI4
aI4
aI4
aI4
aI4
aI4
aI4
aI4
aI4
aI4
aI4
aI4
aI4
aI4
aI4
aI4
aI4
aI7
aI4
aI4
aI4
aI4
aI4
aI4
aI4
aI7
aI4
aI4
aI4
aI4
aI4
aI4
aI4
aI4
aI4
aI4
aI4
aI4
aI4
aI4
aI4
aI4
aI4
aI4
aI4
aI4
aI4
aI4
aI4
aI4
aI4
aI4
aI4
aI4
aI4
aI4
aI4
aI4
aI4
aI4
aI4
aI4
aI4
aI4
aI4
aI4
aI4
aI4
aI4
aI4
aI4
aI4
aI4
aI4
aI4
aI4
aI7
aI4
aI4
aI4
aI4
aI4
aI4
aI4
aI4
aI4
aI4
aI4
aI4
aI4
aI4
aI4
aI4
aI4
aI4
aI4
aI4
aI4
aI4
aI4
aI4
aI4
aI4
aI4
aI4
aI4
aI7
aI4
aI4
aI4
aI4
aI4
aI4
aI4
aI4
aI4
aI4
aI4
aI4
aI4
aI4
aI4
aI4
aI4
aI4
aI4
aI4
asg18
S'Digital Blasphemy Wallpapers [Updated 21.03.2013] [rutracker-419205].torrent'
p536
sg20
F-1
sg21
S'/home/ak/Pictures/Wallpapers'
p537
sg23
F1556404139.162487
sg24
I0
sg25
S'1b5ec5a682ea9f446e076aa160712754bf417be7'
p538
sg27
I01
sg28
I00
sg29
I00
sg30
(lp539
(dp540
S'send_stats'
p541
I01
sS'fails'
p542
I0
sS'verified'
p543
I00
sS'scrape_incomplete'
p544
I-1
sS'min_announce'
p545
NsS'scrape_downloaded'
p546
I-1
sS'url'
p547
S'http://bt.t-ru.org/ann'
p548
sS'last_error'
p549
(dp550
S'category'
p551
S'system'
p552
sS'value'
p553
I0
ssS'fail_limit'
p554
I0
sS'next_announce'
p555
NsS'complete_sent'
p556
I00
sS'source'
p557
I1
sS'trackerid'
p558
S''
sS'start_sent'
p559
I00
sS'tier'
p560
I0
sS'scrape_complete'
p561
I-1
sS'message'
p562
S''
sS'updating'
p563
I00
sa(dp564
S'send_stats'
p565
I01
sS'fails'
p566
I0
sS'verified'
p567
I00
sS'scrape_incomplete'
p568
I-1
sS'min_announce'
p569
NsS'scrape_downloaded'
p570
I-1
sS'url'
p571
S'http://retracker.local/announce'
p572
sS'last_error'
p573
(dp574
S'category'
p575
S'system'
p576
sS'value'
p577
I0
ssS'fail_limit'
p578
I0
sS'next_announce'
p579
NsS'complete_sent'
p580
I00
sS'source'
p581
I1
sS'trackerid'
p582
S''
sS'start_sent'
p583
I00
sS'tier'
p584
I1
sS'scrape_complete'
p585
I-1
sS'message'
p586
S''
sS'updating'
p587
I00
sasg80
Nsg81
I00
sg82
F2
sg83
I00
sba(ideluge.core.torrentmanager
TorrentState
p588
(dp589
g7
F-1
sg8
S'/home/ak/Downloads'
p590
sg10
I00
sg11
I-1
sg12
I00
sg13
I-1
sg14
I00
sg15
I3
sg16
(lp591
I0
aI0
aI0
aI0
aI0
aI0
aI0
aI0
aI0
aI0
aI0
aI0
aI0
aI0
aI0
aI0
aI0
aI0
aI0
aI0
aI0
aI0
aI0
aI0
aI0
aI0
aI0
aI0
aI0
aI0
aI0
aI0
aI0
aI0
aI0
aI0
aI0
aI0
aI0
aI0
aI0
aI0
aI0
aI0
aI0
aI0
aI0
aI0
aI0
aI0
aI0
aI0
aI0
aI0
aI0
aI0
aI0
aI0
aI0
aI0
aI0
aI0
aI0
aI0
aI0
aI0
aI0
aI0
aI0
aI0
aI0
aI0
aI0
aI0
aI0
aI0
aI0
aI0
aI0
aI0
aI0
aI0
aI0
aI0
aI0
aI0
aI0
aI0
aI0
aI0
aI0
aI0
aI0
aI0
aI0
aI0
aI0
aI0
aI0
aI0
aI0
aI0
aI0
aI0
aI0
aI0
aI0
aI0
aI0
aI0
aI0
aI0
aI0
aI0
aI0
aI0
aI0
aI0
aI0
aI0
aI0
aI0
aI0
aI0
aI0
aI0
aI0
aI0
aI0
aI0
aI0
aI0
aI0
aI0
aI0
aI0
aI0
aI0
aI0
aI0
aI0
aI0
aI0
aI0
aI0
aI0
aI0
aI0
aI0
aI0
aI0
aI0
aI0
aI0
aI0
aI0
aI0
aI0
aI0
aI0
aI0
aI0
aI0
aI0
aI0
aI0
aI0
aI0
aI0
aI0
aI0
aI0
aI0
aI0
aI0
aI0
aI0
aI0
aI0
aI0
aI0
aI0
aI0
aI0
aI0
aI0
aI0
aI0
aI0
aI0
aI0
aI0
aI0
aI0
aI0
aI0
aI0
aI0
aI0
aI0
aI0
aI0
aI0
aI0
aI0
aI0
aI0
aI0
aI0
aI0
aI0
aI0
aI0
aI0
aI0
aI0
aI0
aI0
aI0
aI0
aI0
aI0
aI0
aI0
aI0
aI0
aI0
aI0
aI0
aI0
aI0
aI0
aI0
aI0
aI0
aI0
aI0
aI0
aI0
aI0
aI0
aI0
aI0
aI0
aI0
aI0
aI0
aI0
aI0
aI0
aI0
aI0
aI0
aI0
aI0
aI0
aI0
aI0
aI0
aI0
aI0
aI0
aI0
aI0
aI0
aI0
aI0
aI0
aI0
aI0
aI0
aI0
aI0
aI0
aI0
aI0
aI0
aI0
aI0
aI0
aI0
aI0
aI0
aI0
aI0
aI0
aI0
aI0
aI0
aI0
aI0
aI0
aI0
aI0
aI0
aI0
aI0
aI0
aI0
aI0
aI0
aI0
aI0
aI0
aI0
aI0
aI0
aI0
aI0
aI0
aI0
aI0
aI0
aI0
aI0
aI0
aI0
aI0
aI0
aI0
aI0
aI0
aI0
aI0
aI0
aI0
aI0
aI0
aI0
aI0
aI0
aI0
aI0
aI0
aI0
aI0
aI0
aI0
aI0
aI0
aI0
aI0
aI0
aI0
aI0
aI0
aI0
aI0
aI0
aI0
aI0
aI0
aI0
aI0
aI0
aI0
aI0
aI0
aI0
aI0
aI0
aI0
aI0
aI0
aI0
aI0
aI0
aI0
aI0
aI0
aI0
aI0
aI0
aI0
aI0
aI0
aI0
aI0
aI0
aI0
aI0
aI0
aI0
aI0
aI0
aI0
aI0
aI0
aI0
aI0
aI0
aI0
aI0
aI0
aI0
aI0
aI0
aI0
aI0
aI0
aI0
aI0
aI0
aI0
aI0
aI0
aI0
aI0
aI0
aI0
aI0
aI0
aI0
aI0
aI0
aI0
aI0
aI0
aI0
aI0
aI0
aI0
aI0
aI0
aI0
aI0
aI0
aI0
aI0
aI0
aI0
aI0
aI0
aI0
aI0
aI0
aI0
aI0
aI0
aI0
aI0
aI0
aI0
aI0
aI0
aI0
aI0
aI0
aI0
aI0
aI0
aI0
aI0
aI0
aI0
aI0
aI0
aI0
aI0
aI0
aI0
aI0
aI0
aI0
aI0
aI0
aI0
aI0
aI0
aI0
aI0
aI0
aI0
aI0
aI0
aI0
aI0
aI0
aI0
aI0
aI0
aI0
aI0
aI0
aI0
aI0
aI0
aI0
aI0
aI0
aI0
aI0
aI0
aI0
aI0
aI0
aI0
aI0
aI0
aI0
aI0
aI0
aI0
aI0
aI0
aI0
aI0
aI0
aI0
aI0
aI0
aI0
aI0
aI0
aI0
aI0
aI0
aI0
aI0
aI0
aI0
aI0
aI0
aI0
aI0
aI0
aI0
aI0
aI0
aI0
aI0
aI0
aI0
aI0
aI0
aI0
aI0
aI0
aI0
aI0
aI0
aI0
aI0
aI0
aI0
aI0
aI0
aI0
aI0
aI0
aI0
aI0
aI0
aI0
aI0
aI0
aI0
aI0
aI0
aI0
aI0
aI0
aI0
aI0
aI0
aI0
aI0
aI0
aI0
aI0
aI0
aI0
aI0
aI0
aI0
aI0
aI0
aI0
aI0
aI0
aI0
aI0
aI0
aI0
aI0
aI0
aI0
aI0
aI0
aI0
aI0
aI0
aI0
aI0
aI0
aI0
aI0
aI0
aI0
aI0
aI0
aI0
aI0
aI0
aI0
aI0
aI0
aI0
aI0
aI0
aI0
aI0
aI0
aI0
aI0
aI0
aI0
aI0
aI0
aI0
aI0
aI0
aI0
aI0
aI0
aI0
aI0
aI0
aI0
aI0
aI0
aI0
aI0
aI0
aI0
aI0
aI0
aI0
aI0
aI0
aI0
aI0
aI0
aI0
aI0
aI0
aI0
aI0
aI0
aI0
aI0
aI0
aI0
aI0
aI0
aI0
aI0
aI0
aI0
aI0
aI0
aI0
aI0
aI0
aI0
aI0
aI0
aI0
aI0
aI0
aI0
aI0
aI0
aI0
aI0
aI0
aI0
aI0
aI0
aI0
aI0
aI0
aI0
aI0
aI0
aI0
aI0
aI0
aI0
aI0
aI0
aI0
aI0
aI0
aI0
aI0
aI0
aI0
aI0
aI0
aI0
aI0
aI0
aI0
aI0
aI0
aI0
aI0
aI0
aI0
aI0
aI0
aI0
aI0
aI0
aI0
aI0
aI0
aI0
aI0
aI0
aI0
aI0
aI0
aI0
aI0
aI0
aI0
aI0
aI0
aI0
aI0
aI0
aI0
aI0
aI0
aI0
aI0
aI0
aI0
aI0
aI0
aI0
aI0
aI0
aI0
aI0
aI0
aI0
aI0
aI0
aI0
aI0
aI0
aI0
aI0
aI0
aI0
aI0
aI0
aI0
aI0
aI0
aI0
aI0
aI0
aI0
aI0
aI0
aI0
aI0
aI0
aI0
aI0
aI0
aI0
aI0
aI0
aI0
aI0
aI0
aI0
aI0
aI0
aI0
aI0
aI0
aI0
aI0
aI0
aI0
aI0
aI0
aI0
aI0
aI0
aI0
aI0
aI0
aI1
aI1
aI1
aI1
aI1
aI1
aI1
aI1
aI1
aI1
aI1
aI1
aI1
aI1
aI1
aI1
aI1
aI1
aI1
aI1
aI1
aI1
aI1
aI1
aI1
aI1
aI1
aI1
aI1
aI1
aI1
aI1
aI1
aI1
aI1
aI1
aI1
aI1
aI1
aI1
aI1
aI1
aI1
aI1
aI1
aI1
aI1
aI1
aI1
aI1
aI1
aI1
aI1
aI1
aI1
aI1
aI1
aI1
aI1
aI1
aI1
aI1
aI1
aI1
aI1
aI1
aI1
aI1
aI1
aI1
aI1
aI1
aI1
aI1
aI1
aI1
aI1
aI1
aI1
aI1
aI1
aI1
aI1
aI1
aI1
aI1
aI1
aI1
aI1
aI1
aI1
aI1
aI1
aI1
aI1
aI1
aI1
aI1
aI1
aI1
aI1
aI1
aI1
aI1
aI1
aI1
aI1
aI1
aI1
aI1
aI1
aI1
aI1
aI1
aI1
aI1
aI1
aI1
aI1
aI1
aI1
aI1
aI1
aI1
aI1
aI1
aI1
aI1
aI1
aI1
aI1
aI1
aI1
aI1
aI1
aI1
aI1
aI1
aI1
aI1
aI1
aI1
aI1
aI1
aI1
aI1
aI1
aI1
aI1
aI1
aI1
aI1
aI1
aI1
aI1
aI1
aI1
aI1
aI1
aI1
aI1
aI1
aI1
aI1
aI1
aI1
aI1
aI1
aI1
aI1
aI1
aI1
aI1
aI1
aI1
aI1
aI1
aI1
aI1
aI1
aI1
aI1
aI1
aI1
aI1
aI1
aI1
aI1
aI1
aI1
aI1
aI1
aI1
aI1
aI1
aI1
aI1
aI1
aI1
aI1
aI1
aI1
aI1
aI1
aI1
aI1
aI1
aI1
aI1
aI1
aI1
aI1
aI1
aI1
aI1
aI1
aI1
aI1
aI1
aI1
aI1
aI1
aI1
aI1
aI1
aI1
aI1
aI1
aI1
aI1
aI1
aI1
aI1
aI1
aI1
aI1
aI1
aI1
aI1
aI1
aI1
aI1
aI1
aI1
aI1
aI1
aI1
aI1
aI1
aI1
aI1
aI1
aI1
aI1
aI1
aI1
aI1
aI1
aI1
aI1
aI1
aI1
aI1
aI1
aI1
aI1
aI1
aI1
aI1
aI1
aI1
aI1
aI1
aI1
aI1
aI1
aI1
aI1
aI1
aI1
aI1
aI1
aI1
aI1
aI1
aI1
aI1
aI1
aI1
aI1
aI1
aI1
aI1
aI1
aI1
aI1
aI1
aI1
aI1
aI1
aI1
aI1
aI1
aI1
aI1
aI1
aI1
aI1
aI1
aI1
aI1
aI1
aI1
aI1
aI1
aI1
aI1
aI1
aI1
aI1
aI1
aI1
aI1
aI1
aI1
aI1
aI1
aI1
aI1
aI1
aI1
aI1
aI1
aI1
aI1
aI1
aI1
aI1
aI1
aI1
aI1
aI1
aI1
aI1
aI1
aI1
aI1
aI1
aI1
aI1
aI1
aI1
aI1
aI1
aI1
aI1
aI1
aI1
aI1
aI1
aI1
aI1
aI1
aI1
aI1
aI1
aI1
aI1
aI1
aI1
aI1
aI1
aI1
aI1
aI1
aI1
aI1
aI1
aI1
aI1
aI1
aI1
aI1
aI1
aI1
aI1
aI1
aI1
aI1
aI1
aI1
aI1
aI1
aI1
aI1
aI1
aI1
aI1
aI1
aI1
aI1
aI1
aI1
aI1
aI1
aI1
aI1
aI1
aI1
aI1
aI1
aI1
aI1
aI1
aI1
aI1
aI1
aI1
aI1
aI1
aI1
aI1
aI1
aI1
aI1
aI1
aI1
aI1
aI1
aI1
aI1
aI1
aI1
aI1
aI1
aI1
aI1
aI1
aI1
aI1
aI1
aI1
aI1
aI1
aI1
aI1
aI1
aI1
aI1
aI1
aI1
aI1
aI1
aI1
aI1
aI1
aI1
aI1
aI1
aI1
aI1
aI1
aI1
aI1
aI1
aI1
aI1
aI1
aI1
aI1
aI1
aI1
aI1
aI1
aI1
aI1
aI1
aI1
aI1
aI1
aI1
aI1
aI1
aI1
aI1
aI1
aI1
aI1
aI1
aI1
aI1
aI1
aI1
aI1
aI1
aI1
aI1
aI1
aI1
aI1
aI1
aI1
aI1
aI1
aI1
aI1
aI1
aI1
aI1
aI1
aI1
aI1
aI1
aI1
aI1
aI1
aI1
aI1
aI1
aI1
aI1
aI1
aI1
aI1
aI1
aI1
aI1
aI1
aI1
aI1
aI1
aI1
aI1
aI1
aI1
aI1
aI1
aI1
aI1
aI1
aI1
aI1
aI1
aI1
aI1
aI1
aI1
aI1
aI1
aI1
aI1
aI1
aI1
aI1
aI1
aI1
aI1
aI1
aI1
aI1
aI1
aI1
aI1
aI1
aI1
aI1
aI1
aI1
aI1
aI1
aI1
aI1
aI1
aI1
aI1
aI1
aI1
aI1
aI1
aI1
aI1
aI1
aI1
aI1
aI1
aI1
aI1
aI1
aI1
aI1
aI1
aI1
aI1
aI1
aI1
aI1
aI1
aI1
aI1
aI1
aI1
aI1
aI1
aI1
aI1
aI1
aI1
aI1
aI1
aI1
aI1
aI1
aI1
aI1
aI1
aI1
aI1
aI1
aI1
aI1
aI1
aI1
aI1
aI1
aI1
aI1
aI1
aI1
aI1
aI1
aI1
aI1
aI1
aI1
aI1
aI1
aI1
aI1
aI1
aI1
aI1
aI1
aI1
aI1
aI1
aI1
aI1
aI1
aI1
aI1
aI1
aI1
aI1
aI1
aI1
aI1
aI1
aI1
aI1
aI1
aI1
aI1
aI1
aI1
aI1
aI1
aI1
aI1
aI1
aI1
aI1
aI1
aI1
aI1
aI1
aI1
aI1
aI1
aI1
aI1
aI1
aI1
aI1
aI1
aI1
aI1
aI1
aI1
aI1
aI1
aI1
aI1
aI1
aI1
aI1
aI1
aI1
aI1
aI1
aI1
aI1
aI1
aI1
aI1
aI1
aI1
aI1
aI1
aI1
aI1
aI1
aI1
aI1
aI1
aI1
aI1
aI1
aI1
aI1
aI1
aI1
aI1
aI1
aI1
aI1
aI1
aI1
aI1
aI1
aI1
aI1
aI1
aI1
aI1
aI1
aI1
aI1
aI1
aI1
aI1
aI1
aI1
aI1
aI1
aI1
aI1
aI1
aI1
aI1
aI1
aI1
aI1
aI1
aI1
aI1
aI1
aI1
aI1
aI1
aI1
aI1
aI1
aI1
aI1
aI1
aI1
aI1
aI1
aI1
aI1
aI1
aI1
aI1
aI1
aI1
aI1
aI1
aI1
aI1
aI1
aI1
aI1
aI1
aI1
aI1
aI1
aI1
aI1
aI1
aI1
aI1
aI1
aI1
aI1
aI1
aI1
aI1
aI1
aI1
aI1
aI1
aI1
aI1
aI1
aI1
aI1
aI1
aI1
aI1
aI1
aI1
aI1
aI1
aI1
aI1
aI1
aI1
aI1
aI1
aI1
aI1
aI1
aI1
aI1
aI1
aI1
aI1
aI1
aI1
aI1
aI1
aI1
aI1
aI1
aI1
aI1
aI1
aI1
aI1
aI1
aI1
aI1
aI1
aI1
aI1
aI1
aI1
aI1
aI1
aI1
aI1
aI1
aI1
aI1
aI1
aI1
aI1
aI1
aI1
aI1
aI1
aI1
aI1
aI1
aI1
aI1
aI1
aI1
aI1
aI1
aI1
aI1
aI1
aI1
aI1
aI1
aI1
aI1
aI1
aI1
aI1
aI1
aI1
aI1
aI1
aI1
aI1
aI1
aI1
aI1
aI1
aI1
aI1
aI1
aI1
aI1
aI1
aI1
aI1
aI1
aI1
aI1
aI1
aI1
aI1
aI1
aI1
aI1
aI1
aI1
aI1
aI1
aI1
aI1
aI1
aI1
aI1
aI1
aI1
aI1
aI1
aI1
aI1
aI1
aI1
aI1
aI1
aI1
aI1
aI1
aI1
aI1
aI1
aI1
aI1
aI1
aI1
aI1
aI1
aI1
aI1
aI1
aI1
aI1
aI1
aI1
aI1
aI1
aI1
aI1
aI1
aI1
aI1
aI1
aI1
aI1
aI1
aI1
aI1
aI1
aI1
aI1
aI1
aI1
aI1
aI1
aI1
aI1
aI1
aI1
aI1
aI1
aI1
aI1
aI1
aI1
aI1
aI1
aI1
aI1
aI1
aI1
aI1
aI1
aI1
aI1
aI1
aI1
aI1
aI1
aI1
aI1
aI1
aI1
aI1
aI1
aI1
aI1
aI1
aI1
aI1
aI1
aI1
aI1
aI1
aI1
aI1
aI1
aI1
aI1
aI1
aI1
aI1
aI1
aI1
aI1
aI1
aI1
aI1
aI1
aI1
aI1
aI1
aI1
aI1
aI1
aI1
aI1
aI1
aI1
aI1
aI1
aI1
aI1
aI1
aI1
aI1
aI1
aI1
aI1
aI1
aI1
aI1
aI1
aI1
aI1
aI1
aI1
aI1
aI1
aI1
aI1
aI1
aI1
aI1
aI1
aI1
aI1
aI1
aI1
aI1
aI1
aI1
aI1
aI1
aI1
aI1
aI1
aI1
aI1
aI1
aI1
aI1
aI1
aI1
aI1
aI1
aI1
aI1
aI1
aI1
aI1
aI1
aI1
aI1
aI1
aI1
aI1
aI1
aI1
aI1
aI1
aI1
aI1
aI1
aI1
aI1
aI1
aI1
aI1
aI1
aI1
aI1
aI1
aI1
aI1
aI1
aI1
aI1
aI1
aI1
aI1
aI1
aI1
aI1
aI1
aI1
aI1
aI1
aI1
aI1
aI1
aI1
aI1
aI1
aI1
aI1
aI1
aI1
aI1
aI1
aI1
aI1
aI1
aI1
aI1
aI1
aI1
aI1
aI1
aI1
aI1
aI1
aI1
aI1
aI1
aI1
aI1
aI1
aI1
aI1
aI1
aI1
aI1
aI1
aI1
aI1
aI1
aI1
aI1
aI1
aI1
aI1
aI1
aI1
aI1
aI1
aI1
aI1
aI1
aI1
aI1
aI1
aI1
aI1
aI1
aI1
aI1
aI1
aI1
aI1
aI1
aI1
aI1
aI1
aI1
aI1
aI1
aI1
aI1
aI1
aI1
aI1
aI1
aI1
aI1
aI1
aI1
aI1
aI1
aI1
aI1
aI1
aI1
aI1
aI1
aI1
aI1
aI1
aI1
aI1
aI1
aI1
aI1
aI1
aI1
aI1
aI1
aI1
aI1
aI1
aI1
aI1
aI1
aI1
aI1
aI1
aI1
aI1
aI1
aI1
aI1
aI1
aI1
aI1
aI1
aI1
aI1
aI1
aI1
aI1
aI1
aI1
aI1
aI1
aI1
aI1
aI1
aI1
aI1
aI1
aI1
aI1
aI1
aI1
aI1
aI1
aI1
aI1
aI1
aI1
aI1
aI1
aI1
aI1
aI1
aI1
aI1
aI1
aI1
aI1
aI1
aI1
aI1
aI1
aI1
aI1
aI1
aI1
aI1
aI1
aI1
aI1
aI1
aI1
aI1
aI1
aI1
aI1
aI1
aI1
aI1
aI1
aI1
aI1
aI1
aI1
aI1
aI1
aI1
aI1
aI1
aI1
aI1
aI1
aI1
aI1
aI1
aI1
aI1
aI1
aI1
aI1
aI1
aI1
aI1
aI1
aI1
aI1
aI1
aI1
aI1
aI1
aI1
aI1
aI1
aI1
aI1
aI1
aI1
aI1
aI1
aI1
aI1
aI1
aI1
aI1
aI1
aI1
aI1
aI1
aI1
aI1
aI1
aI1
aI1
aI1
aI1
aI1
aI1
aI1
aI1
aI1
aI1
aI1
aI1
aI1
aI1
aI1
aI1
aI1
aI1
aI1
aI1
aI1
aI1
aI1
aI1
aI1
aI1
aI1
aI1
aI1
aI1
aI1
aI1
aI1
aI1
aI1
aI1
aI1
aI1
aI1
aI1
aI1
aI1
aI1
aI1
aI1
aI1
aI1
aI1
aI1
aI1
aI1
aI1
aI1
aI1
aI1
aI1
aI1
aI1
aI1
aI1
aI1
aI1
aI1
aI1
aI1
aI1
aI1
aI1
aI1
aI1
aI1
aI1
aI1
aI1
aI1
aI1
aI1
aI1
aI1
aI1
aI1
aI1
aI1
aI1
aI1
aI1
aI1
aI1
aI1
aI1
aI1
aI1
aI1
aI1
aI1
aI1
aI1
aI1
aI1
aI1
aI1
aI1
aI1
aI1
aI1
aI1
aI1
aI1
aI1
aI1
aI1
aI1
aI1
aI1
aI1
aI1
aI1
aI1
aI1
aI1
aI1
aI1
aI1
aI1
aI1
aI1
aI1
aI1
aI1
aI1
aI1
aI1
aI1
aI1
aI1
aI1
aI1
aI1
aI1
aI1
aI1
aI1
aI1
aI1
aI1
aI1
aI1
aI1
aI1
aI1
aI1
aI1
aI1
aI1
aI1
aI1
aI1
aI1
aI1
aI1
aI1
aI1
aI1
aI1
aI1
aI1
aI1
aI1
aI1
aI1
aI1
aI1
aI1
aI1
aI1
aI1
aI1
aI1
aI1
aI1
aI1
aI1
aI1
aI1
aI1
aI1
aI1
aI1
aI1
aI1
aI1
aI1
aI1
aI1
aI1
aI1
aI1
aI1
aI1
aI1
aI1
aI1
aI1
aI1
aI1
aI1
aI1
aI1
aI1
aI1
aI1
aI1
aI1
aI1
aI1
aI1
aI1
aI1
aI1
aI1
aI1
aI1
aI1
aI1
aI1
aI1
aI1
aI1
aI1
aI1
aI1
aI1
aI1
aI1
aI1
aI1
aI1
aI1
aI1
aI1
aI1
aI1
aI1
aI1
aI1
aI1
aI1
aI1
aI1
aI1
aI1
aI1
aI1
aI1
aI1
aI1
aI1
aI1
aI1
aI1
aI1
aI1
aI1
aI1
aI1
aI1
aI1
aI1
aI1
aI1
aI1
aI1
aI1
aI1
aI1
aI1
aI1
aI1
aI1
aI1
aI1
aI1
aI1
aI1
aI1
aI1
aI1
aI1
aI1
aI1
aI1
aI1
aI1
aI1
aI1
aI1
aI1
aI1
aI1
aI1
aI1
aI1
aI1
aI1
aI1
aI1
aI1
aI1
aI1
aI1
aI1
aI1
aI1
aI1
aI1
aI1
aI1
aI1
aI1
aI1
aI1
aI1
aI1
aI1
aI1
aI1
aI1
aI1
aI1
aI1
aI1
aI1
aI1
aI1
aI1
aI1
aI1
aI1
aI1
aI1
aI1
aI1
aI1
aI1
aI1
aI1
aI1
aI1
aI1
aI1
aI1
aI1
aI1
aI1
aI1
aI1
aI1
aI1
aI1
aI1
aI1
aI1
aI1
aI1
aI1
aI1
aI1
aI1
aI1
aI1
aI1
aI1
aI1
aI1
aI1
aI1
aI1
aI1
aI1
aI1
aI1
aI1
aI1
aI1
aI1
aI1
aI1
aI1
aI1
aI1
aI1
aI1
aI1
aI1
aI1
aI1
aI1
aI1
aI1
aI1
aI1
aI1
aI1
aI1
aI1
aI1
aI1
aI1
aI1
aI1
aI1
aI1
aI1
aI1
aI1
aI1
aI1
aI1
aI1
aI1
aI1
aI1
aI1
aI1
aI1
aI1
aI1
aI1
aI1
aI1
aI1
aI1
aI1
aI1
aI1
aI1
aI1
aI1
aI1
aI1
aI1
aI1
aI1
aI1
aI1
aI1
aI1
aI1
aI1
aI1
aI1
aI1
aI1
aI1
aI1
aI1
aI1
aI1
aI1
aI1
aI1
aI1
aI1
aI1
aI1
aI1
aI1
aI1
aI1
aI1
aI1
aI1
aI1
aI1
aI1
aI1
aI1
aI1
aI1
aI1
aI1
aI1
aI1
aI1
aI1
aI1
aI1
aI1
aI1
aI1
aI1
aI1
aI1
aI1
aI1
aI1
aI1
aI1
aI1
aI1
aI1
aI1
aI1
aI1
aI1
aI1
aI1
aI1
aI1
aI1
aI1
aI1
aI1
aI1
aI1
aI1
aI1
aI1
aI1
aI1
aI1
aI1
aI1
aI1
aI1
aI1
aI1
aI1
aI1
aI1
aI1
aI1
aI1
aI1
aI1
aI1
aI1
aI1
aI0
aI0
aI0
aI0
aI0
aI0
aI0
aI0
aI0
aI0
aI0
aI0
aI0
aI0
aI0
aI0
aI0
aI0
aI0
aI0
aI0
aI0
aI0
aI0
aI0
aI0
aI0
aI0
aI0
aI0
aI0
aI0
aI0
aI0
aI0
aI0
aI0
aI0
aI0
aI0
aI0
aI0
aI0
aI0
aI0
aI0
aI0
aI0
aI0
aI0
aI0
aI0
aI0
aI0
aI0
aI0
aI0
aI0
aI0
aI0
aI0
aI0
aI0
aI0
aI0
aI0
aI0
aI0
aI0
aI0
aI0
aI0
aI0
aI0
aI0
aI0
aI0
aI0
aI0
aI0
aI0
aI0
aI0
aI0
aI0
aI0
aI0
aI0
aI0
aI0
aI0
aI0
aI0
aI0
aI0
aI0
aI0
aI0
aI0
aI0
aI0
aI0
aI0
aI0
aI0
aI0
aI0
aI0
aI0
aI0
aI0
aI0
aI0
aI0
aI0
aI0
aI0
aI0
aI0
aI0
aI0
aI0
aI0
aI0
aI0
aI0
aI0
aI0
aI0
aI0
aI0
aI0
aI0
aI0
aI0
aI0
aI0
aI0
aI0
aI0
aI0
aI0
aI0
aI0
aI0
aI0
aI0
aI0
aI0
aI0
aI0
aI0
aI0
aI0
aI0
aI0
aI0
aI0
aI0
aI0
aI0
aI0
aI0
aI0
aI0
aI0
aI0
aI0
aI0
aI0
aI0
aI0
aI0
aI0
aI0
aI0
aI0
aI0
aI0
aI0
aI0
aI0
aI0
aI0
aI0
aI0
aI0
aI0
aI0
aI0
aI0
aI0
aI0
aI0
aI0
aI0
aI0
aI0
aI0
aI0
aI0
aI0
aI0
aI0
aI0
aI0
aI0
aI0
aI0
aI0
aI0
aI0
aI0
aI0
aI0
aI0
aI0
aI0
aI0
aI0
aI0
aI0
aI0
aI0
aI0
aI0
aI0
aI0
aI0
aI0
aI0
aI0
aI0
aI0
aI0
aI0
aI0
aI0
aI0
aI0
aI0
aI0
aI0
aI0
aI0
aI0
aI0
aI0
aI0
aI0
aI0
aI0
aI0
aI0
aI0
aI0
aI0
aI0
aI0
aI0
aI0
aI0
aI0
aI0
aI0
aI0
aI0
aI0
aI0
aI0
aI0
aI0
aI0
aI0
aI0
aI0
aI0
aI0
aI0
aI0
aI0
aI0
aI0
aI0
aI0
aI0
aI0
aI0
aI0
aI0
aI0
aI0
aI0
aI0
aI0
aI0
aI0
aI0
aI0
aI0
aI0
aI0
aI0
aI0
aI0
aI0
aI0
aI0
aI0
aI0
aI0
aI0
aI0
aI0
aI0
aI0
aI0
aI0
aI0
aI0
aI0
aI0
aI0
aI0
aI0
aI0
aI0
aI0
aI0
aI0
aI0
aI0
aI0
aI0
aI0
aI0
aI0
aI0
aI0
aI0
aI0
aI0
aI0
aI0
aI0
aI0
aI0
aI0
aI0
aI0
aI0
aI0
aI0
aI0
aI0
aI0
aI0
aI0
aI0
aI0
aI0
aI0
aI0
aI0
aI0
aI0
aI0
aI0
aI0
aI0
aI0
aI0
aI0
aI0
aI0
aI0
aI0
aI0
aI0
aI0
aI0
aI0
aI0
aI0
aI0
aI0
aI0
aI0
aI0
aI0
aI0
aI0
aI0
aI0
aI0
aI0
aI0
aI0
aI0
aI0
aI0
aI0
aI0
aI0
aI0
aI0
aI0
aI0
aI0
aI0
aI0
aI0
aI0
aI0
aI0
aI0
aI0
aI0
aI0
aI0
aI0
aI0
aI0
aI0
aI0
aI0
aI0
aI0
aI0
aI0
aI0
aI0
aI0
aI0
aI0
aI0
aI0
aI0
aI0
aI0
aI0
aI0
aI0
aI0
aI0
aI0
aI0
aI0
aI0
aI0
aI0
aI0
aI0
aI0
aI0
aI0
aI0
aI0
aI0
aI0
aI0
aI0
aI0
aI0
aI0
aI0
aI0
aI0
aI0
aI0
aI0
aI0
aI0
aI0
aI0
aI0
aI0
aI0
aI0
aI0
aI0
aI0
aI0
aI0
aI0
aI0
aI0
aI0
aI0
aI0
aI0
aI0
aI0
aI0
aI0
aI0
aI0
aI0
aI0
aI0
aI0
aI0
aI0
aI0
aI0
aI0
aI0
aI0
aI0
aI0
aI0
aI0
aI0
aI0
aI0
aI0
aI0
aI0
aI0
aI0
aI0
aI0
aI0
aI0
aI0
aI0
aI0
aI0
aI0
aI0
aI0
aI0
aI0
aI0
aI0
aI0
aI0
aI0
aI0
aI0
aI0
aI0
aI0
aI0
aI0
aI0
aI0
aI0
aI0
aI0
aI0
aI0
aI0
aI0
aI0
aI0
aI0
aI0
aI0
aI0
aI0
aI0
aI0
aI0
aI0
aI0
aI0
aI0
aI0
aI0
aI0
aI0
aI0
aI0
aI0
aI0
aI0
aI0
aI0
aI0
aI0
aI0
aI0
aI0
aI0
aI0
aI0
aI0
aI0
aI0
aI0
aI0
aI0
aI0
aI0
aI0
aI0
aI0
aI0
aI0
aI0
aI0
aI0
aI0
aI0
aI0
aI0
aI0
aI0
aI0
aI0
aI0
aI0
aI0
aI0
aI0
aI0
aI0
aI0
aI0
aI0
aI0
aI0
aI0
aI0
aI0
aI0
aI0
aI0
aI0
aI0
aI0
aI0
aI0
aI0
aI0
aI0
aI0
aI0
aI0
aI0
aI0
aI0
aI0
aI0
aI0
aI0
aI0
aI0
aI0
aI0
aI0
aI0
aI0
aI0
aI0
aI0
aI0
aI0
aI0
aI0
aI0
aI0
aI0
aI0
aI0
aI0
aI0
aI0
aI0
aI0
aI0
aI0
aI0
aI0
aI0
aI0
aI0
aI0
aI0
aI0
aI0
aI0
aI0
aI0
aI0
aI0
aI0
aI0
aI0
aI0
aI0
aI0
aI0
aI0
aI0
aI0
asg18
S'\xd0\x9f\xd1\x80\xd0\xb8\xd1\x80\xd0\xbe\xd0\xb4\xd0\xb0 HD Wallpapers [\xd0\xbe\xd1\x821024\xd1\x85768 \xd0\xb4\xd0\xbe2560\xd1\x851600] 3379 \xd1\x88\xd1\x82. [\xd0\xbe\xd0\xb1\xd0\xbd\xd0\xbe\xd0\xb2\xd0\xbb\xd0\xb5\xd0\xbd 27.01.2011] [rutracker-3076180].torrent'
p592
sg20
F-1
sg21
S'/home/ak/Pictures/Wallpapers'
p593
sg23
F1556404354.4653831
sg24
I0
sg25
S'230e132c5ea5bb8be503ca38a339feb830ab1f41'
p594
sg27
I01
sg28
I00
sg29
I00
sg30
(lp595
(dp596
S'send_stats'
p597
I01
sS'fails'
p598
I0
sS'verified'
p599
I00
sS'scrape_incomplete'
p600
I-1
sS'min_announce'
p601
NsS'scrape_downloaded'
p602
I-1
sS'url'
p603
S'http://bt2.t-ru.org/ann'
p604
sS'last_error'
p605
(dp606
S'category'
p607
S'system'
p608
sS'value'
p609
I0
ssS'fail_limit'
p610
I0
sS'next_announce'
p611
NsS'complete_sent'
p612
I00
sS'source'
p613
I1
sS'trackerid'
p614
S''
sS'start_sent'
p615
I00
sS'tier'
p616
I0
sS'scrape_complete'
p617
I-1
sS'message'
p618
S''
sS'updating'
p619
I00
sa(dp620
S'send_stats'
p621
I01
sS'fails'
p622
I0
sS'verified'
p623
I00
sS'scrape_incomplete'
p624
I-1
sS'min_announce'
p625
NsS'scrape_downloaded'
p626
I-1
sS'url'
p627
S'http://retracker.local/announce'
p628
sS'last_error'
p629
(dp630
S'category'
p631
S'system'
p632
sS'value'
p633
I0
ssS'fail_limit'
p634
I0
sS'next_announce'
p635
NsS'complete_sent'
p636
I00
sS'source'
p637
I1
sS'trackerid'
p638
S''
sS'start_sent'
p639
I00
sS'tier'
p640
I1
sS'scrape_complete'
p641
I-1
sS'message'
p642
S''
sS'updating'
p643
I00
sasg80
Nsg81
I00
sg82
F2
sg83
I00
sba(ideluge.core.torrentmanager
TorrentState
p644
(dp645
g7
F-1
sg8
S'/home/ak/Downloads'
p646
sg10
I00
sg11
I-1
sg12
I00
sg13
I-1
sg14
I00
sg15
I1
sg16
(lp647
I1
aI1
aI1
aI1
aI1
aI1
aI1
aI1
aI1
aI1
aI1
aI1
aI1
aI1
aI1
aI1
aI1
aI1
aI1
aI1
aI1
aI1
aI1
aI1
aI1
aI1
aI1
aI1
aI1
aI1
aI1
aI1
aI1
aI1
aI1
aI1
aI1
aI1
aI1
aI1
aI1
aI1
aI1
aI1
aI1
aI1
aI1
aI1
aI1
aI1
aI1
aI1
aI1
aI1
aI1
aI1
aI1
aI1
aI1
aI1
aI1
aI1
aI1
aI1
aI1
aI1
aI1
aI1
aI1
aI1
aI1
aI1
aI1
aI1
aI1
aI1
aI1
aI1
aI1
aI1
aI1
aI1
aI1
aI1
aI1
aI1
aI1
aI1
aI1
aI1
aI1
aI1
aI1
aI1
aI1
aI1
aI1
aI1
aI1
aI1
aI1
aI1
aI1
aI1
aI1
aI1
aI1
aI1
aI1
aI1
aI1
aI1
aI1
aI1
aI1
aI1
aI1
aI1
aI1
aI1
aI1
aI1
aI1
aI1
aI1
aI1
aI1
aI1
aI1
aI1
aI1
aI1
aI1
aI1
aI1
aI1
aI1
aI1
aI1
aI1
aI1
aI1
aI1
aI1
aI1
aI1
aI1
aI1
aI1
aI1
aI1
aI1
aI1
aI1
aI1
aI1
aI1
aI1
aI1
aI1
aI1
aI1
aI1
aI1
aI1
aI1
aI1
aI1
aI1
aI1
aI1
aI1
aI1
aI1
aI1
aI1
aI1
aI1
aI1
aI1
aI1
aI1
aI1
aI1
aI1
aI1
aI1
aI1
aI1
aI1
aI1
aI1
aI1
aI1
aI1
aI1
aI1
aI1
aI1
aI1
aI1
aI1
aI1
aI1
aI1
aI1
aI1
aI1
aI1
aI1
aI1
aI1
aI1
aI1
aI1
aI1
aI1
aI1
aI1
aI1
aI1
aI1
aI1
aI1
aI1
aI1
aI1
aI1
aI1
aI1
aI1
aI1
aI1
aI1
aI1
aI1
aI1
aI1
aI1
aI1
aI1
aI1
aI1
aI1
aI1
aI1
aI1
aI1
aI1
aI1
aI1
aI1
aI1
aI1
aI1
aI1
aI1
aI1
aI1
aI1
aI1
aI1
aI1
aI1
aI1
aI1
aI1
aI1
aI1
aI1
aI1
aI1
aI1
aI1
aI1
aI1
aI1
aI1
aI1
aI1
aI1
aI1
aI1
aI1
aI1
aI1
aI1
aI1
aI1
aI1
aI1
aI1
aI1
aI1
aI1
aI1
aI1
aI1
aI1
aI1
aI1
aI1
aI1
aI1
aI1
aI1
aI1
aI1
aI1
aI1
aI1
aI1
aI1
aI1
aI1
aI1
aI1
aI1
aI1
aI1
aI1
aI1
aI1
aI1
aI1
aI1
aI1
aI1
aI1
aI1
aI1
aI1
aI1
aI1
aI1
aI1
aI1
aI1
aI1
aI1
aI1
aI1
aI1
aI1
aI1
aI1
aI1
aI1
aI1
aI1
aI1
aI1
aI1
aI1
aI1
aI1
aI1
aI1
aI1
aI1
aI1
aI1
aI1
aI1
aI1
aI1
aI1
aI1
aI1
aI1
aI1
aI1
aI1
aI1
aI1
aI1
aI1
aI1
aI1
aI1
aI1
aI1
aI1
aI1
aI1
aI1
aI1
aI1
aI1
aI1
aI1
aI1
aI1
aI1
aI1
aI1
aI1
aI1
aI1
aI1
aI1
aI1
aI1
aI1
aI1
aI1
aI1
aI1
aI1
aI1
aI1
aI1
aI1
aI1
aI1
aI1
aI1
aI1
aI1
aI1
aI1
aI1
aI1
aI1
aI1
aI1
aI1
aI1
aI1
aI1
aI1
aI1
aI1
aI1
aI1
aI1
aI1
aI1
aI1
aI1
aI1
aI1
aI1
aI1
aI1
aI1
aI1
aI1
aI1
aI1
aI1
aI1
aI1
aI1
aI1
aI1
aI1
aI1
aI1
aI1
aI1
aI1
aI1
aI1
aI1
aI1
aI1
aI1
aI1
aI1
aI1
aI1
aI1
aI1
aI1
aI1
aI1
aI1
aI1
aI1
aI1
aI1
aI1
aI1
aI1
aI1
aI1
aI1
aI1
aI1
aI1
aI1
aI1
aI1
aI1
aI1
aI1
aI1
aI1
aI1
aI1
aI1
aI1
aI1
aI1
aI1
aI1
aI1
aI1
aI1
aI1
aI1
aI1
aI1
aI1
aI1
aI1
aI1
aI1
aI1
aI1
aI1
aI1
aI1
aI1
aI1
aI1
aI1
aI1
aI1
aI1
aI1
aI1
aI1
aI1
aI1
aI1
aI1
aI1
aI1
aI1
aI1
aI1
aI1
aI1
aI1
aI1
aI1
aI1
aI1
aI1
aI1
aI1
aI1
aI1
aI1
aI1
aI1
aI1
aI1
aI1
aI1
aI1
aI0
aI0
aI0
aI0
aI0
aI0
aI0
aI0
aI0
aI0
aI0
aI0
aI0
aI0
aI0
aI0
aI0
aI0
aI0
aI0
aI0
aI0
aI0
aI0
aI0
aI0
aI0
aI0
aI0
aI0
aI0
aI0
aI0
aI0
aI0
aI0
aI0
aI0
aI0
aI0
aI0
aI0
aI0
aI0
aI0
aI0
aI0
aI0
aI0
aI0
aI0
aI0
aI0
aI0
aI0
aI0
aI0
aI0
aI0
aI0
aI0
aI0
aI0
aI0
aI0
aI0
aI0
aI0
aI0
aI0
aI0
aI0
aI0
aI0
aI0
aI0
aI0
aI0
aI0
aI0
aI0
aI0
aI0
aI0
aI0
aI0
aI0
aI0
aI0
aI0
aI0
aI0
aI0
aI0
aI0
aI0
aI0
aI0
aI0
aI0
aI0
aI0
aI0
aI0
aI0
aI0
aI0
aI0
aI0
aI0
aI0
aI0
aI0
aI0
aI0
aI0
aI0
aI0
aI0
aI0
aI0
aI0
aI0
aI0
aI0
aI0
aI0
aI0
aI0
asg18
S'Abstract Wallpapers [1920x1080-2560x1600] 692 \xd1\x88\xd1\x82. [rutracker-3379073].torrent'
p648
sg20
F-1
sg21
S'/home/ak/Pictures/Wallpapers'
p649
sg23
F1556404197.702306
sg24
I0
sg25
S'8e863b9037782155bd1ee3b635e0584291ae630f'
p650
sg27
I01
sg28
I00
sg29
I00
sg30
(lp651
(dp652
S'send_stats'
p653
I01
sS'fails'
p654
I0
sS'verified'
p655
I00
sS'scrape_incomplete'
p656
I-1
sS'min_announce'
p657
NsS'scrape_downloaded'
p658
I-1
sS'url'
p659
S'http://bt4.t-ru.org/ann'
p660
sS'last_error'
p661
(dp662
S'category'
p663
S'system'
p664
sS'value'
p665
I0
ssS'fail_limit'
p666
I0
sS'next_announce'
p667
NsS'complete_sent'
p668
I00
sS'source'
p669
I1
sS'trackerid'
p670
S''
sS'start_sent'
p671
I00
sS'tier'
p672
I0
sS'scrape_complete'
p673
I-1
sS'message'
p674
S''
sS'updating'
p675
I00
sa(dp676
S'send_stats'
p677
I01
sS'fails'
p678
I0
sS'verified'
p679
I00
sS'scrape_incomplete'
p680
I-1
sS'min_announce'
p681
NsS'scrape_downloaded'
p682
I-1
sS'url'
p683
S'http://retracker.local/announce'
p684
sS'last_error'
p685
(dp686
S'category'
p687
S'system'
p688
sS'value'
p689
I0
ssS'fail_limit'
p690
I0
sS'next_announce'
p691
NsS'complete_sent'
p692
I00
sS'source'
p693
I1
sS'trackerid'
p694
S''
sS'start_sent'
p695
I00
sS'tier'
p696
I1
sS'scrape_complete'
p697
I-1
sS'message'
p698
S''
sS'updating'
p699
I00
sasg80
Nsg81
I00
sg82
F2
sg83
I00
sbasb.