(ideluge.core.torrentmanager
TorrentManagerState
p1
(dp2
S'torrents'
p3
(lp4
(ideluge.core.torrentmanager
TorrentState
p5
(dp6
S'max_download_speed'
p7
F-1
sS'move_completed_path'
p8
S'/home/ak/Downloads'
p9
sS'paused'
p10
I01
sS'max_upload_slots'
p11
I-1
sS'prioritize_first_last'
p12
I00
sS'max_connections'
p13
I-1
sS'compact'
p14
I00
sS'queue'
p15
I1
sS'file_priorities'
p16
(lp17
I4
aI4
aI4
aI4
aI4
aI4
aI4
aI4
aI4
aI4
aI4
aI4
aI4
aI4
aI4
aI4
aI4
aI4
aI4
aI4
aI4
aI4
aI4
aI4
aI4
aI4
aI4
aI4
aI4
aI4
aI4
aI4
aI4
aI4
aI4
aI4
aI4
aI4
aI4
aI4
aI4
aI4
aI4
aI4
aI4
aI4
aI4
aI4
aI4
aI4
aI4
aI4
aI4
aI4
aI4
aI4
aI4
aI4
aI4
aI4
aI4
aI4
aI4
aI4
aI4
aI4
aI4
aI4
aI4
aI4
aI4
aI4
aI4
aI4
aI4
aI4
aI4
aI4
aI4
aI4
aI4
aI4
aI4
aI4
aI4
aI4
aI4
aI4
aI4
aI4
aI4
aI4
aI4
aI4
aI4
aI4
aI4
aI4
aI4
aI4
aI4
aI4
aI4
aI4
aI4
aI4
aI4
aI4
aI4
aI4
aI4
aI4
aI4
aI4
aI4
aI4
aI4
aI4
aI4
aI4
aI4
aI4
aI4
aI4
aI4
aI4
aI4
aI4
aI4
aI4
aI4
aI4
aI4
aI4
aI4
aI4
aI4
aI4
aI4
aI4
aI4
aI4
aI4
aI4
aI4
aI4
aI4
aI4
aI4
aI4
aI4
aI4
aI4
aI4
aI4
aI4
aI4
aI4
aI4
aI4
aI4
aI4
aI4
aI4
aI4
aI4
aI4
aI4
aI4
aI4
aI4
aI4
aI4
aI4
aI4
aI4
aI4
aI4
aI4
aI4
aI4
aI4
aI4
aI4
aI4
aI4
aI4
aI4
aI4
aI4
aI4
aI4
aI4
aI4
aI4
aI4
aI4
aI4
aI4
aI4
aI4
aI4
aI4
aI4
aI4
aI4
aI4
aI4
aI4
aI4
aI4
aI4
aI4
aI4
aI4
aI4
aI4
aI4
aI4
aI4
aI4
aI4
aI4
aI4
aI4
aI4
aI4
aI4
aI4
aI4
aI4
aI4
aI4
aI4
aI4
aI4
aI4
aI4
aI4
aI4
aI4
aI4
aI4
aI4
aI4
aI4
aI4
aI4
aI4
aI4
aI4
aI4
aI4
aI4
aI4
aI4
aI4
aI4
aI4
aI4
aI4
aI4
aI4
aI4
aI4
aI4
aI4
aI4
aI4
aI4
aI4
aI4
aI4
aI4
aI4
aI4
aI4
aI4
aI4
aI4
aI4
aI4
aI4
aI4
aI4
aI4
aI4
aI4
aI4
aI4
aI4
aI4
aI4
aI4
aI4
aI4
aI4
aI4
aI4
aI4
aI4
aI4
aI4
aI4
aI4
aI4
aI4
aI4
aI4
aI4
aI4
aI4
aI4
aI4
aI4
aI4
aI4
aI4
aI4
aI4
aI4
aI4
aI4
aI4
aI4
aI4
aI4
aI4
aI4
aI4
aI4
aI4
aI4
aI4
aI4
aI4
aI4
aI4
aI4
aI4
aI4
aI4
aI4
aI4
aI4
aI4
aI4
aI4
aI4
aI4
aI4
aI4
aI4
aI4
aI4
aI4
aI4
aI4
aI4
aI4
aI4
aI4
aI4
aI4
aI4
aI4
aI4
aI4
aI4
aI4
aI4
aI4
aI4
aI4
aI4
aI4
aI4
aI4
aI4
aI4
aI4
aI4
aI4
aI4
aI4
aI4
aI4
aI4
aI4
aI4
aI4
aI4
aI4
aI4
aI4
aI4
aI4
aI4
aI4
aI4
aI4
aI4
aI4
aI4
aI4
aI4
aI4
aI4
aI4
aI4
aI4
aI4
aI4
aI4
aI4
aI4
aI4
aI4
aI4
aI4
aI4
aI4
aI4
aI4
aI4
aI4
aI4
aI4
aI4
aI4
aI4
aI4
aI4
aI4
aI4
aI4
aI4
aI4
aI4
aI4
aI4
aI4
aI4
aI4
aI4
aI4
aI4
aI4
aI4
aI4
aI4
aI4
aI4
aI4
aI4
aI4
aI4
aI4
aI4
aI4
aI4
aI4
aI4
aI4
aI4
aI4
aI4
aI4
aI4
aI4
aI4
aI4
aI4
aI4
aI4
aI4
aI4
aI4
aI4
aI4
aI4
aI4
aI4
aI4
aI4
aI4
aI4
aI4
aI4
aI4
aI4
aI4
aI4
aI4
aI4
aI4
aI4
aI4
aI4
aI4
aI4
aI4
aI4
aI4
aI4
aI4
aI4
aI4
aI4
aI4
aI4
aI4
aI4
aI4
aI4
aI4
aI4
aI4
aI4
aI4
aI4
aI4
aI4
aI4
aI4
aI4
aI4
aI4
aI4
aI4
aI4
aI4
aI4
aI4
aI4
aI4
aI4
aI4
aI4
aI4
aI4
aI4
aI4
aI4
aI4
aI4
aI4
aI4
aI4
aI4
aI4
aI4
aI4
aI4
asS'filename'
p18
S"(Hard Rock Blues Rock) Snowy White Snowy White & The White Flames Snowy White's Blues Agency The Snowy White Blues Project - [rutracker-5301258].torrent"
p19
sS'max_upload_speed'
p20
F-1
sS'save_path'
p21
S'/home/ak/Music'
p22
sS'time_added'
p23
F1556215246.6686931
sS'total_uploaded'
p24
I29891314
sS'torrent_id'
p25
S'4f2336ad65573fc13302154ef5263c2ec6fa6985'
p26
sS'auto_managed'
p27
I01
sS'stop_at_ratio'
p28
I00
sS'move_completed'
p29
I00
sS'trackers'
p30
(lp31
(dp32
S'send_stats'
p33
I01
sS'fails'
p34
I0
sS'verified'
p35
I00
sS'scrape_incomplete'
p36
I-1
sS'min_announce'
p37
NsS'source'
p38
I1
sS'url'
p39
S'http://bt3.t-ru.org/ann'
p40
sS'last_error'
p41
(dp42
S'category'
p43
S'system'
p44
sS'value'
p45
I0
ssS'fail_limit'
p46
I0
sS'next_announce'
p47
NsS'complete_sent'
p48
I00
sS'scrape_downloaded'
p49
I-1
sS'trackerid'
p50
S''
sS'start_sent'
p51
I00
sS'tier'
p52
I0
sS'scrape_complete'
p53
I-1
sS'message'
p54
S''
sS'updating'
p55
I00
sa(dp56
S'send_stats'
p57
I01
sS'fails'
p58
I0
sS'verified'
p59
I00
sS'scrape_incomplete'
p60
I-1
sS'min_announce'
p61
NsS'source'
p62
I1
sS'url'
p63
S'http://retracker.local/announce'
p64
sS'last_error'
p65
(dp66
S'category'
p67
S'system'
p68
sS'value'
p69
I0
ssS'fail_limit'
p70
I0
sS'next_announce'
p71
NsS'complete_sent'
p72
I00
sS'scrape_downloaded'
p73
I-1
sS'trackerid'
p74
S''
sS'start_sent'
p75
I00
sS'tier'
p76
I1
sS'scrape_complete'
p77
I-1
sS'message'
p78
S''
sS'updating'
p79
I00
sasS'magnet'
p80
NsS'remove_at_ratio'
p81
I00
sS'stop_ratio'
p82
F2
sS'is_finished'
p83
I00
sba(ideluge.core.torrentmanager
TorrentState
p84
(dp85
g7
F-1
sg8
S'/home/ak/Downloads'
p86
sg10
I01
sg11
I-1
sg12
I00
sg13
I-1
sg14
I00
sg15
I0
sg16
(lp87
I1
aI0
aI1
aI1
aI1
aI0
aI1
aI1
aI0
aI0
aI0
aI0
aI0
aI0
aI0
aI0
aI1
aI1
aI1
aI1
aI0
aI1
aI0
aI1
aI1
aI0
aI0
aI0
aI1
aI1
aI1
aI1
aI1
aI0
aI1
aI1
aI1
aI0
aI1
aI1
aI0
aI1
aI0
aI0
aI1
aI1
aI0
aI0
aI0
aI1
aI0
aI1
aI1
aI1
aI0
aI0
aI0
aI0
aI0
aI1
aI0
aI0
aI0
aI1
aI1
aI1
aI0
aI1
aI0
aI1
aI0
aI0
aI0
aI1
aI0
aI0
aI1
aI1
aI0
aI1
aI0
aI0
aI0
aI0
aI0
aI0
aI0
aI0
aI1
aI1
aI1
aI0
aI0
aI0
aI0
aI0
aI1
aI1
aI1
aI1
aI1
aI0
aI1
aI1
aI0
aI1
aI0
aI0
aI0
aI1
aI0
aI0
aI0
aI0
aI1
aI0
aI1
aI1
aI0
aI0
aI1
aI1
aI0
aI0
aI0
aI0
aI1
aI0
aI0
aI0
aI0
aI0
aI0
aI0
aI1
aI0
aI0
aI1
aI0
aI0
aI0
aI0
aI0
aI0
aI0
aI0
aI0
aI0
aI1
aI0
aI0
aI1
aI0
aI0
aI0
aI0
aI0
aI1
aI1
aI1
aI1
aI1
aI0
aI1
aI0
aI1
aI0
aI1
aI0
aI0
aI0
aI0
aI0
aI0
aI0
aI1
aI0
aI1
aI0
aI1
aI0
aI0
aI1
aI1
aI0
aI1
aI1
aI1
aI1
aI1
aI1
aI0
aI0
aI1
aI1
aI1
aI0
aI0
aI1
aI0
aI1
aI0
aI0
aI1
aI1
aI1
aI0
aI0
aI0
aI0
aI1
aI1
aI1
aI1
aI1
aI0
aI0
aI0
aI0
aI1
aI0
aI1
aI1
aI0
aI0
aI0
aI0
aI0
aI0
aI1
aI0
aI1
aI1
aI0
aI1
aI1
aI0
aI1
aI0
aI0
aI0
aI0
aI0
aI0
aI0
aI1
aI1
aI0
aI0
aI1
aI1
aI1
aI0
aI1
aI1
aI1
aI1
aI1
aI1
aI1
aI1
aI0
aI1
aI1
aI0
aI1
aI0
aI0
aI0
aI1
aI0
aI1
aI1
aI0
aI0
aI1
aI1
aI0
aI0
aI1
aI0
aI1
aI1
aI0
aI0
aI1
aI1
aI0
aI1
aI0
aI1
aI0
aI0
aI0
aI0
aI0
aI0
aI0
aI0
aI1
aI1
aI1
aI0
aI1
aI0
aI1
aI0
aI0
aI1
aI0
aI0
aI1
aI1
aI0
aI0
aI0
aI0
aI1
aI0
aI1
aI0
aI0
aI1
aI0
aI1
aI0
aI0
aI1
aI0
aI1
aI1
aI0
aI0
aI0
aI1
aI0
aI0
aI0
aI0
aI0
aI0
aI0
aI0
aI1
aI1
aI0
aI0
aI0
aI0
aI0
aI0
aI0
aI0
aI0
aI1
aI0
aI0
aI0
aI1
aI0
aI1
aI0
aI0
aI1
aI0
aI0
aI0
aI0
aI0
aI1
aI0
aI0
aI1
aI0
aI0
aI1
aI0
aI1
aI0
aI0
aI0
aI0
aI0
aI1
aI0
aI0
aI0
aI0
aI0
aI0
aI0
aI0
aI0
aI0
aI0
aI1
aI0
aI0
aI0
aI0
aI0
aI0
aI0
asg18
S'(Punk Rock Hard Rock) Billy Idol - \xd0\x94\xd0\xb8\xd1\x81\xd0\xba\xd0\xbe\xd0\xb3\xd1\x80\xd0\xb0\xd1\x84\xd0\xb8\xd1\x8f (1981-2018) (32 CD), MP3, 128-320 kBps [rutracker-1677998].torrent'
p88
sg20
F-1
sg21
S'/home/ak/Music'
p89
sg23
F1556211915.2675049
sg24
I0
sg25
S'3ea7d5339d2c86914552f7eb4ccdc42d816e34ce'
p90
sg27
I01
sg28
I00
sg29
I00
sg30
(lp91
(dp92
S'send_stats'
p93
I01
sS'fails'
p94
I0
sS'verified'
p95
I00
sS'scrape_incomplete'
p96
I-1
sS'min_announce'
p97
NsS'scrape_downloaded'
p98
I-1
sS'url'
p99
S'http://bt2.t-ru.org/ann'
p100
sS'last_error'
p101
(dp102
S'category'
p103
S'system'
p104
sS'value'
p105
I0
ssS'fail_limit'
p106
I0
sS'next_announce'
p107
NsS'complete_sent'
p108
I00
sS'source'
p109
I1
sS'trackerid'
p110
S''
sS'start_sent'
p111
I00
sS'tier'
p112
I0
sS'scrape_complete'
p113
I-1
sS'message'
p114
S''
sS'updating'
p115
I00
sa(dp116
S'send_stats'
p117
I01
sS'fails'
p118
I0
sS'verified'
p119
I00
sS'scrape_incomplete'
p120
I-1
sS'min_announce'
p121
NsS'scrape_downloaded'
p122
I-1
sS'url'
p123
S'http://retracker.local/announce'
p124
sS'last_error'
p125
(dp126
S'category'
p127
S'system'
p128
sS'value'
p129
I0
ssS'fail_limit'
p130
I0
sS'next_announce'
p131
NsS'complete_sent'
p132
I00
sS'source'
p133
I1
sS'trackerid'
p134
S''
sS'start_sent'
p135
I00
sS'tier'
p136
I1
sS'scrape_complete'
p137
I-1
sS'message'
p138
S''
sS'updating'
p139
I00
sasg80
Nsg81
I00
sg82
F2
sg83
I00
sba(ideluge.core.torrentmanager
TorrentState
p140
(dp141
g7
F-1
sg8
S'/home/ak/Downloads'
p142
sg10
I01
sg11
I-1
sg12
I00
sg13
I-1
sg14
I00
sg15
I-1
sg16
(lp143
I4
aI4
aI4
aI4
aI4
aI4
aI4
aI4
aI4
aI4
aI4
aI4
aI4
aI4
aI4
aI4
aI4
aI4
aI4
aI4
aI4
aI4
aI4
aI4
aI4
aI4
aI4
aI4
aI4
aI4
aI4
aI4
aI4
aI4
aI4
aI4
aI4
aI4
aI4
aI4
aI4
aI4
aI4
aI4
aI4
aI4
aI4
aI4
aI4
aI4
aI4
aI4
aI4
aI4
aI4
aI4
aI4
aI4
aI4
aI4
aI4
aI4
aI4
aI4
aI4
aI4
aI4
aI4
aI4
aI4
aI4
aI4
aI4
aI4
aI4
aI4
aI4
aI4
aI4
aI4
aI4
aI4
aI4
aI4
aI4
aI4
aI4
aI4
asg18
S'\xd0\x94\xd0\xb0\xd1\x80\xd1\x8c\xd1\x8f Daria \xd0\xa1\xd0\xb5\xd0\xb7\xd0\xbe\xd0\xbd 1-5 \xd0\xa1\xd0\xb5\xd1\x80\xd0\xb8\xd0\xb8 1-65 \xd0\xb8\xd0\xb7 65 + Is It Fall Yet + Is It College Yet (\xd0\x9a\xd0\xb0\xd1\x80\xd0\xb5\xd0\xbd \xd0\x94\xd0\xb8\xd1\x88\xd0\xb5\xd1\x80, \xd0\x9a\xd0\xb0\xd1\x80\xd0\xb5\xd0\xbd \xd0\xa5\xd0\xb0\xd0\xb9\xd0\xb4\xd0\xb5\xd0\xbd Karen Disher, K [rutracker-5138371].torrent'
p144
sg20
F-1
sg21
S'/home/ak/Videos'
p145
sg23
F1556215166.467551
sg24
I0
sg25
S'69d4a0995cc59b4adac1891c3ea7bc978c5940f8'
p146
sg27
I01
sg28
I00
sg29
I00
sg30
(lp147
(dp148
S'send_stats'
p149
I01
sS'fails'
p150
I0
sS'verified'
p151
I00
sS'scrape_incomplete'
p152
I-1
sS'min_announce'
p153
NsS'source'
p154
I1
sS'url'
p155
S'http://bt2.t-ru.org/ann'
p156
sS'last_error'
p157
(dp158
S'category'
p159
S'system'
p160
sS'value'
p161
I0
ssS'fail_limit'
p162
I0
sS'next_announce'
p163
NsS'complete_sent'
p164
I00
sS'scrape_downloaded'
p165
I-1
sS'trackerid'
p166
S''
sS'start_sent'
p167
I00
sS'tier'
p168
I0
sS'scrape_complete'
p169
I-1
sS'message'
p170
S''
sS'updating'
p171
I00
sa(dp172
S'send_stats'
p173
I01
sS'fails'
p174
I0
sS'verified'
p175
I00
sS'scrape_incomplete'
p176
I-1
sS'min_announce'
p177
NsS'source'
p178
I1
sS'url'
p179
S'http://retracker.local/announce'
p180
sS'last_error'
p181
(dp182
S'category'
p183
S'system'
p184
sS'value'
p185
I0
ssS'fail_limit'
p186
I0
sS'next_announce'
p187
NsS'complete_sent'
p188
I00
sS'scrape_downloaded'
p189
I-1
sS'trackerid'
p190
S''
sS'start_sent'
p191
I00
sS'tier'
p192
I1
sS'scrape_complete'
p193
I-1
sS'message'
p194
S''
sS'updating'
p195
I00
sasg80
Nsg81
I00
sg82
F2
sg83
I01
sba(ideluge.core.torrentmanager
TorrentState
p196
(dp197
g7
F-1
sg8
S'/home/ak/Downloads'
p198
sg10
I01
sg11
I-1
sg12
I00
sg13
I-1
sg14
I00
sg15
I-1
sg16
(lp199
I4
aI4
aI4
aI4
aI4
aI4
aI4
aI4
aI4
aI4
aI4
aI4
aI4
aI4
aI4
aI4
aI4
asg18
S'\xd0\xa2\xd0\xb5\xd0\xbe\xd1\x80\xd0\xb8\xd1\x8f \xd0\xb1\xd0\xbe\xd0\xbb\xd1\x8c\xd1\x88\xd0\xbe\xd0\xb3\xd0\xbe \xd0\xb2\xd0\xb7\xd1\x80\xd1\x8b\xd0\xb2\xd0\xb0 The Big Bang Theory \xd0\xa1\xd0\xb5\xd0\xb7\xd0\xbe\xd0\xbd 1 \xd0\xa1\xd0\xb5\xd1\x80\xd0\xb8\xd0\xb8 1-17 \xd0\xb8\xd0\xb7 17 (\xd0\xa7\xd0\xb0\xd0\xba \xd0\x9b\xd0\xbe\xd1\x80\xd1\x80\xd0\xb8 Chuck Lorre) [2007-2008, \xd0\xa1\xd0\xa8\xd0\x90, \xd0\xba\xd0\xbe\xd0\xbc\xd0\xb5\xd0\xb4\xd0\xb8\xd1\x8f, BD [rutracker-4910017].torrent'
p200
sg20
F-1
sg21
S'/home/ak/Videos'
p201
sg23
F1556215425.0059631
sg24
I819200
sg25
S'b41869a28dc4d3817d0d33f603e0fb54213495fd'
p202
sg27
I01
sg28
I00
sg29
I00
sg30
(lp203
(dp204
S'send_stats'
p205
I01
sS'fails'
p206
I0
sS'verified'
p207
I00
sS'scrape_incomplete'
p208
I-1
sS'min_announce'
p209
NsS'source'
p210
I1
sS'url'
p211
S'http://bt.t-ru.org/ann'
p212
sS'last_error'
p213
(dp214
S'category'
p215
S'system'
p216
sS'value'
p217
I0
ssS'fail_limit'
p218
I0
sS'next_announce'
p219
NsS'complete_sent'
p220
I00
sS'scrape_downloaded'
p221
I-1
sS'trackerid'
p222
S''
sS'start_sent'
p223
I00
sS'tier'
p224
I0
sS'scrape_complete'
p225
I-1
sS'message'
p226
S''
sS'updating'
p227
I00
sa(dp228
S'send_stats'
p229
I01
sS'fails'
p230
I0
sS'verified'
p231
I00
sS'scrape_incomplete'
p232
I-1
sS'min_announce'
p233
NsS'source'
p234
I1
sS'url'
p235
S'http://retracker.local/announce'
p236
sS'last_error'
p237
(dp238
S'category'
p239
S'system'
p240
sS'value'
p241
I0
ssS'fail_limit'
p242
I0
sS'next_announce'
p243
NsS'complete_sent'
p244
I00
sS'scrape_downloaded'
p245
I-1
sS'trackerid'
p246
S''
sS'start_sent'
p247
I00
sS'tier'
p248
I1
sS'scrape_complete'
p249
I-1
sS'message'
p250
S''
sS'updating'
p251
I00
sasg80
Nsg81
I00
sg82
F2
sg83
I01
sba(ideluge.core.torrentmanager
TorrentState
p252
(dp253
g7
F-1
sg8
S'/home/ak/Downloads'
p254
sg10
I00
sg11
I-1
sg12
I00
sg13
I-1
sg14
I00
sg15
I2
sg16
(lp255
I4
aI4
aI4
aI4
aI4
aI4
aI4
aI4
aI4
aI4
aI4
aI4
aI4
aI4
aI4
aI4
aI4
aI4
aI4
aI4
aI4
aI4
aI4
aI4
aI4
aI4
aI4
aI4
aI4
aI4
aI4
aI4
aI4
aI4
aI4
aI4
aI4
aI4
aI4
aI4
aI4
aI4
aI4
aI4
aI4
aI4
aI4
aI4
aI4
aI4
aI4
aI4
aI4
aI4
aI4
aI4
aI4
aI4
aI4
aI4
aI4
aI4
aI4
aI4
aI4
aI4
aI4
aI4
aI4
aI4
aI4
aI4
aI4
aI4
aI4
aI4
aI4
aI4
aI4
aI4
aI4
aI4
aI4
aI4
aI4
aI4
aI4
aI4
aI4
aI4
aI4
aI4
aI4
aI4
aI4
aI4
aI4
aI4
aI4
aI4
aI4
aI4
aI4
aI4
aI4
aI4
aI4
aI4
aI4
aI4
aI4
aI4
aI4
aI4
aI4
aI4
aI4
aI4
aI4
aI4
aI4
aI4
aI4
aI4
aI4
aI4
aI4
aI4
aI4
aI4
aI4
aI4
aI4
aI4
aI4
aI4
aI4
aI4
aI4
aI4
aI4
aI4
aI4
aI4
aI4
aI4
aI4
aI4
aI4
aI4
aI4
aI4
aI4
aI4
aI4
aI4
aI4
aI4
aI4
aI4
aI4
aI4
aI4
aI4
aI4
aI4
aI4
aI4
aI4
aI4
aI4
aI4
aI4
aI4
aI4
aI4
aI4
aI4
aI4
aI4
aI4
aI4
aI4
aI4
aI4
aI4
aI4
aI4
aI4
aI4
aI4
aI4
aI4
aI4
aI4
aI4
aI4
aI4
aI4
aI4
aI4
aI4
aI4
aI4
aI4
aI4
aI4
aI4
aI4
aI4
aI4
aI4
aI4
aI4
aI4
aI4
aI4
aI4
aI4
aI4
aI4
aI4
aI4
aI4
aI4
aI4
aI4
aI4
aI4
aI4
aI4
aI4
aI4
aI4
aI4
aI4
aI4
aI4
aI4
aI4
aI4
aI4
aI4
aI4
aI4
aI4
aI4
aI4
aI4
aI4
aI4
aI4
aI4
aI4
aI4
aI4
aI4
aI4
aI4
aI4
aI4
aI4
aI4
aI4
aI4
aI4
aI4
aI4
aI4
aI4
aI4
aI4
aI4
aI4
aI4
aI4
aI4
aI4
aI4
aI4
aI4
aI4
aI4
aI4
aI4
aI4
aI4
aI4
aI4
aI4
aI4
aI4
aI4
aI4
aI4
aI4
aI4
aI4
aI4
aI4
aI4
aI4
aI4
aI4
aI4
aI4
aI4
aI4
aI4
aI4
aI4
aI4
aI4
aI4
aI4
aI4
aI4
aI4
aI4
aI4
aI4
aI4
aI4
aI4
aI4
aI4
aI4
aI4
aI4
aI4
aI4
aI4
aI4
aI4
aI4
aI4
aI4
aI4
aI4
aI4
aI4
aI4
aI4
aI4
aI4
aI4
aI4
aI4
aI4
aI4
aI4
aI4
aI4
aI4
aI4
aI4
aI4
aI4
aI4
aI4
aI4
aI4
aI4
aI4
aI4
aI4
aI4
aI4
aI4
aI4
aI4
aI4
aI4
aI4
aI4
aI4
aI4
aI4
aI4
aI4
aI4
aI4
aI4
aI4
aI4
aI4
aI4
aI4
aI4
aI4
aI4
aI4
aI4
aI4
aI4
aI4
aI4
aI4
aI4
aI4
aI4
aI4
aI4
aI4
aI4
aI4
aI4
aI4
aI4
aI4
aI4
aI4
aI4
aI4
aI4
aI4
aI4
aI4
aI4
aI4
aI4
aI4
aI4
aI4
aI4
aI4
aI4
aI4
aI4
aI4
aI4
aI4
aI4
aI4
aI4
aI4
aI4
aI4
aI4
aI4
aI4
aI4
aI4
aI4
aI4
aI4
aI4
aI4
aI4
aI4
aI4
aI4
aI4
aI4
aI4
aI4
aI4
aI4
aI4
aI4
aI4
aI4
aI4
aI4
aI4
aI4
aI4
aI4
aI4
aI4
aI4
aI4
aI4
aI4
aI4
aI4
aI4
aI4
aI4
aI4
aI4
aI4
aI4
aI4
aI4
aI4
aI4
aI4
aI4
aI4
aI4
aI4
aI4
aI4
aI4
aI4
aI4
aI4
aI4
aI4
aI4
aI4
aI4
aI4
aI4
aI4
aI4
aI4
aI4
aI4
aI4
aI4
aI4
aI4
aI4
aI4
aI4
aI4
aI4
aI4
aI4
aI4
aI4
aI4
aI4
aI4
aI4
aI4
aI4
aI4
aI4
aI4
aI4
aI4
aI4
aI4
aI4
aI4
aI4
aI4
aI4
aI4
aI4
aI4
aI4
aI4
aI4
aI4
aI4
aI4
aI4
aI4
aI4
aI4
aI4
aI4
aI4
aI4
aI4
aI4
aI4
aI4
aI4
aI4
aI4
aI4
aI4
aI4
aI4
aI4
aI4
aI4
aI4
aI4
aI4
aI4
aI4
aI4
aI4
aI4
aI4
aI4
aI4
aI4
aI4
aI4
aI4
aI4
aI4
aI4
aI4
aI4
aI4
aI4
aI4
aI4
aI4
aI4
aI4
aI4
aI4
aI4
aI4
aI4
aI4
aI4
aI4
aI4
aI4
aI4
aI4
aI4
aI4
aI4
aI4
aI4
aI4
aI4
aI4
aI4
aI4
aI4
aI4
aI4
aI4
aI4
aI4
aI4
aI4
aI4
aI4
aI4
aI4
aI4
aI4
aI4
aI4
aI4
aI4
aI4
aI4
aI4
aI4
aI4
aI4
aI4
aI4
aI4
aI4
aI4
aI4
aI4
aI4
aI4
aI4
aI4
aI4
aI4
aI4
aI4
aI4
aI4
aI4
aI4
aI4
aI4
aI4
aI4
aI4
aI4
aI4
aI4
aI4
aI4
aI4
aI4
aI4
aI4
aI4
aI4
aI4
aI4
aI4
aI4
aI4
aI4
aI4
aI4
aI4
aI4
aI4
aI4
aI4
aI4
aI4
aI4
aI4
aI4
aI4
aI4
aI4
aI4
aI4
aI4
aI4
aI4
aI4
aI4
aI4
aI4
aI4
aI4
aI4
aI4
aI4
aI4
aI4
aI4
aI4
aI4
aI4
aI4
aI4
aI4
aI4
aI4
aI4
aI4
aI4
aI4
aI4
aI4
aI4
aI4
aI4
aI4
aI4
aI4
aI4
aI4
aI4
aI4
aI4
aI4
aI4
aI4
aI4
aI4
aI4
aI4
aI4
aI4
aI4
aI4
aI4
aI4
aI4
aI4
aI4
aI4
aI4
aI4
aI4
aI4
aI4
aI4
aI4
aI4
aI4
aI4
aI4
aI4
aI4
aI4
aI4
aI4
aI4
aI4
aI4
aI4
aI4
aI4
aI4
aI4
aI4
aI4
aI4
aI4
aI4
aI4
aI4
aI4
aI4
aI4
aI4
aI4
aI4
aI4
aI4
aI4
aI4
aI4
aI4
aI4
aI4
aI4
aI4
aI4
aI4
aI4
aI4
aI4
aI4
aI4
aI4
aI4
aI4
aI4
aI4
aI4
aI4
aI4
aI4
aI4
aI4
aI4
aI4
aI4
aI4
aI4
aI4
aI4
aI4
aI4
aI4
aI4
aI4
aI4
aI4
aI4
aI4
aI4
aI4
aI4
aI4
aI4
aI4
aI4
aI4
aI4
aI4
aI4
aI4
aI4
aI4
aI4
aI4
aI4
aI4
aI4
aI4
aI4
aI4
aI4
aI4
aI4
aI4
aI4
aI4
aI4
aI4
aI4
aI4
aI4
aI4
aI4
aI4
aI4
aI4
aI4
aI4
aI4
aI4
aI4
aI4
aI4
aI4
aI4
aI4
aI4
aI4
aI4
aI4
aI4
aI4
aI4
aI4
aI4
aI4
aI4
aI4
aI4
aI4
aI4
aI4
aI4
aI4
aI4
aI4
aI4
aI4
aI4
aI4
aI4
aI4
aI4
aI4
aI4
aI4
aI4
aI4
aI4
aI4
aI4
aI4
aI4
aI4
aI4
aI4
aI4
aI4
aI4
aI4
aI4
aI4
aI4
aI4
aI4
aI4
aI4
aI4
aI4
aI4
aI4
aI4
aI4
aI4
aI4
aI4
aI4
aI4
aI4
aI4
aI4
aI4
aI4
aI4
aI4
aI4
aI4
aI4
aI4
aI4
aI4
aI4
aI4
aI4
aI4
aI4
aI4
aI4
aI4
aI4
aI4
aI4
aI4
aI4
aI4
aI4
aI4
aI4
aI4
aI4
aI4
aI4
aI4
aI4
aI4
aI4
aI4
aI4
aI4
aI4
aI4
aI4
aI4
aI4
aI4
aI4
aI4
aI4
aI4
aI4
aI4
aI4
aI4
aI4
aI4
aI4
aI4
aI4
aI4
aI4
aI4
aI4
aI4
aI4
aI4
aI4
aI4
aI4
aI4
aI4
aI4
aI4
aI4
aI4
aI4
aI4
aI4
aI4
aI4
aI4
aI4
aI4
aI4
aI4
aI4
aI4
aI4
aI4
aI4
aI4
aI4
aI4
aI4
aI4
aI4
aI4
aI4
aI4
aI4
aI4
aI4
aI4
aI4
aI4
aI4
aI4
aI4
aI4
aI4
aI4
aI4
aI4
aI4
aI4
aI4
aI4
aI4
aI4
aI4
aI4
aI4
aI4
aI4
aI4
aI4
aI4
aI4
aI4
aI4
aI4
aI4
aI4
aI4
aI4
aI4
aI4
aI4
aI4
aI4
aI4
aI4
aI4
aI4
aI4
aI4
aI4
aI4
aI4
aI4
aI4
aI4
aI4
aI4
aI4
aI4
aI4
aI4
aI4
aI4
aI4
aI4
aI4
aI4
aI4
aI4
aI4
aI4
aI4
aI4
aI4
aI4
aI4
aI4
aI4
aI4
aI4
aI4
aI4
aI4
aI4
aI4
aI4
aI4
aI4
aI4
aI4
aI4
aI4
aI4
aI4
aI4
aI4
aI4
aI4
aI4
aI4
aI4
aI4
aI4
aI4
aI4
aI4
aI4
aI4
aI4
aI4
aI4
aI4
aI4
aI4
aI4
aI4
aI4
aI4
aI4
aI4
aI4
aI4
aI4
aI4
aI4
aI4
aI4
aI4
aI4
aI4
aI4
aI4
aI4
aI4
aI4
aI4
aI4
aI4
aI4
aI4
aI4
aI4
aI4
aI4
aI4
aI4
aI4
aI4
aI4
aI4
aI4
aI4
aI4
aI4
aI4
aI4
aI4
aI4
aI4
aI4
aI4
aI4
aI4
aI4
aI4
aI4
aI4
aI4
aI4
aI4
aI4
aI4
aI4
aI4
aI4
aI4
aI4
aI4
aI4
aI4
aI4
aI4
aI4
aI4
aI4
aI4
aI4
aI4
aI4
aI4
aI4
aI4
aI4
aI4
aI4
aI4
aI4
aI4
aI4
aI4
aI4
aI4
aI4
aI4
aI4
aI4
aI4
aI4
aI4
aI4
aI4
aI4
aI4
aI4
aI4
aI4
aI4
aI4
aI4
aI4
aI4
aI4
aI4
aI4
aI4
aI4
aI4
aI4
aI4
aI4
aI4
aI4
aI4
aI4
aI4
aI4
aI4
aI4
aI4
aI4
aI4
aI4
aI4
aI4
aI4
aI4
aI4
aI4
aI4
aI4
aI4
aI4
aI4
aI4
aI4
aI4
aI4
aI4
aI4
aI4
aI4
aI4
aI4
aI4
aI4
aI4
aI4
aI4
aI4
aI4
aI4
aI4
aI4
aI4
aI4
aI4
aI4
aI4
aI4
aI4
aI4
aI4
aI4
aI4
aI4
aI4
aI4
aI4
aI4
aI4
aI4
aI4
aI4
aI4
aI4
aI4
aI4
aI4
aI4
aI4
aI4
aI4
aI4
aI4
aI4
aI4
aI4
aI4
aI4
aI4
aI4
aI4
aI4
aI4
aI4
aI4
aI4
aI4
aI4
aI4
aI4
aI4
aI4
aI4
aI4
aI4
aI4
aI4
aI4
aI4
aI4
aI4
aI4
aI4
aI4
aI4
aI4
aI4
aI4
aI4
aI4
aI4
aI4
aI4
aI4
aI4
aI4
aI4
aI4
aI4
aI4
aI4
aI4
aI4
aI4
aI4
aI4
aI4
aI4
aI4
aI4
aI4
aI4
aI4
aI4
aI4
aI4
aI4
aI4
aI4
aI4
aI4
aI4
aI4
aI4
aI4
aI4
aI4
aI4
aI4
aI4
aI4
aI4
aI4
aI4
aI4
aI4
aI4
aI4
aI4
aI4
aI4
aI4
aI4
aI4
aI4
aI4
aI4
aI4
aI4
aI4
aI4
aI4
aI4
aI4
aI4
aI4
aI4
aI4
aI4
aI4
aI4
aI4
aI4
aI4
aI4
aI4
aI4
aI4
aI4
aI4
aI4
aI4
aI4
aI4
aI4
aI4
aI4
aI4
aI4
aI4
aI4
aI4
aI4
aI4
aI4
aI4
aI4
aI4
aI4
aI4
aI4
aI4
aI4
aI4
aI4
aI4
aI4
aI4
aI4
aI4
aI4
aI4
aI4
aI4
aI4
aI4
aI4
aI4
aI4
aI4
aI4
aI4
aI4
aI4
aI4
aI4
aI4
aI4
aI4
aI4
aI4
aI4
aI4
aI4
aI4
aI4
aI4
aI4
aI4
aI4
aI4
aI4
aI4
aI4
aI4
aI4
aI4
aI4
aI4
aI4
aI4
aI4
aI4
aI4
aI4
aI4
aI4
aI4
aI4
aI4
aI4
aI4
aI4
aI4
aI4
aI4
aI4
aI4
aI4
aI4
aI4
aI4
aI4
aI4
aI4
aI4
aI4
aI4
aI4
aI4
aI4
aI4
aI4
aI4
aI4
aI4
aI4
aI4
aI4
aI4
aI4
aI4
aI4
aI4
aI4
aI4
aI4
aI4
aI4
aI4
aI4
aI4
aI4
aI4
aI4
aI4
aI4
aI4
aI4
aI4
aI4
aI4
aI4
aI4
aI4
aI4
aI4
aI4
aI4
aI4
aI4
aI4
aI4
aI4
aI4
aI4
aI4
aI4
aI4
aI4
aI4
aI4
aI4
aI4
aI4
aI4
aI4
aI4
aI4
aI4
aI4
aI4
aI4
aI4
aI4
aI4
aI4
aI4
aI4
aI4
aI4
aI4
aI4
aI4
aI4
aI4
aI4
aI4
aI4
aI4
aI4
aI4
aI4
aI4
aI4
aI4
aI4
aI4
aI4
aI4
aI4
aI4
aI4
aI4
aI4
aI4
aI4
aI4
aI4
aI4
aI4
aI4
aI4
aI4
aI4
aI4
aI4
aI4
aI4
aI4
aI4
aI4
aI4
aI4
aI4
aI4
aI4
aI4
aI4
aI4
aI4
aI4
aI4
aI4
aI4
aI4
aI4
aI4
aI4
aI4
aI4
aI4
aI4
aI4
aI4
aI4
aI4
aI4
aI4
aI4
aI4
aI4
aI4
aI4
aI4
aI4
aI4
aI4
asg18
S'(Crossover Prog) The Alan Parsons Project The Alan Parsons Symphonic Project Alan Parsons - \xd0\x94\xd0\xb8\xd1\x81\xd0\xba\xd0\xbe\xd0\xb3\xd1\x80\xd0\xb0\xd1\x84\xd0\xb8\xd1\x8f Discography (65 \xd1\x80\xd0\xb5\xd0\xbb\xd0\xb8\xd0\xb7\xd0\xbe [rutracker-5075123].torrent'
p256
sg20
F-1
sg21
S'/home/ak/Downloads'
p257
sg23
F1556216255.616071
sg24
I121100914
sg25
S'41fb7750122a532ed62d557b11a138281bf47481'
p258
sg27
I01
sg28
I00
sg29
I00
sg30
(lp259
(dp260
S'send_stats'
p261
I01
sS'fails'
p262
I0
sS'verified'
p263
I00
sS'scrape_incomplete'
p264
I-1
sS'min_announce'
p265
NsS'source'
p266
I1
sS'url'
p267
S'http://bt2.t-ru.org/ann'
p268
sS'last_error'
p269
(dp270
S'category'
p271
S'system'
p272
sS'value'
p273
I0
ssS'fail_limit'
p274
I0
sS'next_announce'
p275
NsS'complete_sent'
p276
I00
sS'scrape_downloaded'
p277
I-1
sS'trackerid'
p278
S''
sS'start_sent'
p279
I00
sS'tier'
p280
I0
sS'scrape_complete'
p281
I-1
sS'message'
p282
S''
sS'updating'
p283
I00
sa(dp284
S'send_stats'
p285
I01
sS'fails'
p286
I0
sS'verified'
p287
I00
sS'scrape_incomplete'
p288
I-1
sS'min_announce'
p289
NsS'source'
p290
I1
sS'url'
p291
S'http://retracker.local/announce'
p292
sS'last_error'
p293
(dp294
S'category'
p295
S'system'
p296
sS'value'
p297
I0
ssS'fail_limit'
p298
I0
sS'next_announce'
p299
NsS'complete_sent'
p300
I00
sS'scrape_downloaded'
p301
I-1
sS'trackerid'
p302
S''
sS'start_sent'
p303
I00
sS'tier'
p304
I1
sS'scrape_complete'
p305
I-1
sS'message'
p306
S''
sS'updating'
p307
I00
sasg80
Nsg81
I00
sg82
F2
sg83
I00
sba(ideluge.core.torrentmanager
TorrentState
p308
(dp309
g7
F-1
sg8
S'/home/ak/Downloads'
p310
sg10
I01
sg11
I-1
sg12
I00
sg13
I-1
sg14
I00
sg15
I-1
sg16
(lp311
I4
aI4
aI4
aI4
aI4
aI4
aI4
aI4
aI4
aI4
aI4
aI4
aI4
aI4
aI4
aI4
aI4
aI4
aI4
aI4
aI4
aI4
aI4
aI4
aI4
aI4
aI4
aI4
aI4
aI4
aI4
aI4
aI4
aI4
aI4
aI4
aI4
aI4
aI4
aI4
aI4
aI4
aI4
aI4
aI4
aI4
aI4
aI4
aI4
aI4
aI4
aI4
aI4
aI4
aI4
aI4
aI4
aI4
aI4
aI4
aI4
aI4
aI4
aI4
aI4
aI4
aI4
aI4
aI4
aI4
aI4
aI4
aI4
aI4
aI4
aI4
aI4
aI4
aI4
aI4
aI4
aI4
aI4
aI4
aI4
aI4
aI4
aI4
aI4
aI4
aI4
aI4
aI4
aI4
aI4
aI4
aI4
aI4
aI4
aI4
aI4
aI4
aI4
aI4
aI4
aI4
aI4
aI4
aI4
aI4
aI4
aI4
aI4
aI4
aI4
aI4
aI4
aI4
aI4
aI4
aI4
aI4
aI4
aI4
aI4
aI4
aI4
aI4
aI4
aI4
aI4
aI4
aI4
aI4
aI4
aI4
aI4
aI4
aI4
aI4
aI4
aI4
aI4
aI4
aI4
aI4
aI4
aI4
aI4
aI4
aI4
aI4
aI4
aI4
aI4
aI4
aI4
aI4
aI4
aI4
aI4
aI4
aI4
aI4
aI4
aI4
aI4
aI4
aI4
aI4
aI4
aI4
aI4
aI4
aI4
aI4
aI4
aI4
aI4
aI4
aI4
aI4
aI4
aI4
aI4
aI4
aI4
aI4
aI4
aI4
aI4
aI4
aI4
aI4
aI4
aI4
aI4
aI4
aI4
aI4
aI4
aI4
aI4
aI4
aI4
aI4
aI4
aI4
aI4
aI4
aI4
aI4
aI4
aI4
aI4
aI4
aI4
aI4
aI4
aI4
aI4
aI4
aI4
aI4
aI4
aI4
aI4
aI4
aI4
aI4
aI4
aI4
aI4
aI4
aI4
aI4
aI4
aI4
aI4
aI4
aI4
aI4
aI4
aI4
aI4
aI4
aI4
aI4
aI4
aI4
aI4
aI4
aI4
aI4
aI4
aI4
aI4
aI4
aI4
aI4
aI4
aI4
aI4
aI4
aI4
aI4
aI4
aI4
aI4
aI4
aI4
aI4
aI4
aI4
aI4
aI4
aI4
aI4
aI4
aI4
aI4
aI4
aI4
aI4
aI4
aI4
aI4
aI4
aI4
aI4
aI4
aI4
aI4
aI4
aI4
aI4
aI4
aI4
aI4
aI4
aI4
aI4
aI4
aI4
aI4
aI4
aI4
aI4
aI4
aI4
aI4
aI4
aI4
aI4
aI4
aI4
aI4
aI4
aI4
aI4
aI4
aI4
aI4
aI4
aI4
aI4
aI4
aI4
aI4
aI4
aI4
aI4
aI4
aI4
aI4
aI4
aI4
aI4
aI4
aI4
aI4
aI4
aI4
aI4
aI4
aI4
aI4
aI4
aI4
aI4
aI4
aI4
aI4
aI4
aI4
aI4
aI4
aI4
aI4
aI4
aI4
aI4
aI4
aI4
aI4
aI4
aI4
aI4
aI4
aI4
aI4
aI4
aI4
aI4
aI4
aI4
aI4
aI4
aI4
aI4
aI4
aI4
aI4
aI4
aI4
aI4
aI4
aI4
aI4
aI4
aI4
aI4
aI4
aI4
aI4
aI4
aI4
aI4
aI4
aI4
aI4
aI4
aI4
aI4
aI4
aI4
aI4
aI4
aI4
aI4
aI4
aI4
aI4
aI4
aI4
aI4
aI4
aI4
aI4
aI4
aI4
aI4
aI4
aI4
aI4
aI4
aI4
aI4
aI4
aI4
aI4
aI4
aI4
aI4
aI4
aI4
aI4
aI4
aI4
aI4
aI4
aI4
aI4
aI4
aI4
aI4
aI4
aI4
aI4
aI4
aI4
aI4
aI4
aI4
aI4
aI4
aI4
aI4
aI4
aI4
aI4
aI4
aI4
aI4
aI4
aI4
aI4
aI4
aI4
aI4
aI4
aI4
aI4
aI4
aI4
aI4
aI4
aI4
aI4
aI4
aI4
aI4
aI4
aI4
aI4
aI4
aI4
aI4
aI4
aI4
aI4
aI4
aI4
aI4
aI4
aI4
aI4
aI4
aI4
aI4
aI4
aI4
aI4
aI4
aI4
aI4
aI4
aI4
aI4
aI4
aI4
aI4
aI4
aI4
aI4
aI4
aI4
aI4
aI4
aI4
aI4
aI4
aI4
aI4
aI4
aI4
aI4
aI4
aI4
aI4
aI4
aI4
aI4
aI4
aI4
aI4
aI4
aI4
aI4
aI4
aI4
aI4
aI4
aI4
aI4
aI4
aI4
aI4
aI4
aI4
aI4
aI4
aI4
aI4
aI4
aI4
aI4
aI4
aI4
aI4
aI4
aI4
aI4
aI4
aI4
aI4
aI4
aI4
aI4
aI4
aI4
aI4
aI4
aI4
aI4
aI4
aI4
aI4
aI4
aI4
aI4
aI4
aI4
aI4
aI4
aI4
aI4
aI4
aI4
aI4
aI4
aI4
aI4
aI4
aI4
aI4
aI4
aI4
aI4
aI4
aI4
aI4
aI4
aI4
aI4
aI4
aI4
aI4
aI4
aI4
aI4
aI4
aI4
aI4
aI4
aI4
aI4
aI4
aI4
aI4
aI4
aI4
aI4
aI4
aI4
aI4
aI4
aI4
aI4
aI4
aI4
aI4
aI4
aI4
aI4
aI4
aI4
aI4
aI4
aI4
aI4
aI4
aI4
aI4
aI4
aI4
aI4
aI4
aI4
aI4
aI4
aI4
aI4
aI4
aI4
aI4
aI4
aI4
aI4
aI4
aI4
aI4
aI4
aI4
aI4
aI4
aI4
aI4
aI4
aI4
aI4
aI4
aI4
aI4
aI4
aI4
aI4
aI4
aI4
aI4
aI4
aI4
aI4
aI4
aI4
aI4
aI4
aI4
aI4
aI4
aI4
aI4
aI4
aI4
aI4
aI4
aI4
aI4
aI4
aI4
aI4
aI4
aI4
aI4
aI4
aI4
aI4
aI4
aI4
aI4
aI4
aI4
aI4
aI4
aI4
aI4
aI4
aI4
aI4
aI4
aI4
aI4
aI4
aI4
aI4
aI4
aI4
aI4
aI4
aI4
aI4
aI4
aI4
aI4
aI4
aI4
aI4
aI4
aI4
aI4
aI4
aI4
aI4
aI4
aI4
aI4
aI4
aI4
aI4
aI4
aI4
aI4
aI4
aI4
aI4
aI4
aI4
aI4
aI4
aI4
aI4
aI4
aI4
aI4
aI4
aI4
aI4
aI4
aI4
aI4
aI4
aI4
aI4
aI4
aI4
aI4
aI4
aI4
aI4
aI4
aI4
aI4
aI4
aI4
aI4
aI4
aI4
aI4
aI4
aI4
aI4
aI4
aI4
aI4
aI4
aI4
aI4
aI4
aI4
aI4
aI4
aI4
aI4
aI4
aI4
aI4
aI4
aI4
aI4
aI4
aI4
aI4
aI4
aI4
aI4
aI4
aI4
aI4
aI4
aI4
aI4
aI4
aI4
aI4
aI4
aI4
aI4
aI4
aI4
aI4
aI4
aI4
aI4
aI4
aI4
aI4
aI4
aI4
aI4
aI4
aI4
aI4
aI4
aI4
aI4
aI4
aI4
aI4
aI4
aI4
aI4
aI4
aI4
aI4
aI4
aI4
aI4
aI4
aI4
aI4
aI4
aI4
aI4
aI4
aI4
aI4
aI4
aI4
aI4
aI4
aI4
aI4
aI4
aI4
aI4
aI4
aI4
aI4
aI4
aI4
aI4
aI4
aI4
aI4
aI4
aI4
aI4
aI4
aI4
aI4
aI4
aI4
aI4
aI4
aI4
aI4
aI4
aI4
aI4
aI4
aI4
aI4
aI4
aI4
aI4
aI4
aI4
aI4
aI4
aI4
aI4
aI4
aI4
aI4
aI4
aI4
aI4
aI4
aI4
aI4
aI4
aI4
aI4
aI4
aI4
aI4
aI4
aI4
aI4
aI4
aI4
aI4
aI4
aI4
aI4
aI4
aI4
aI4
aI4
aI4
aI4
aI4
aI4
aI4
aI4
aI4
aI4
aI4
aI4
aI4
aI4
aI4
aI4
aI4
aI4
aI4
aI4
aI4
aI4
aI4
aI4
aI4
aI4
aI4
aI4
aI4
aI4
aI4
aI4
aI4
aI4
aI4
aI4
aI4
aI4
aI4
aI4
aI4
aI4
aI4
aI4
aI4
aI4
aI4
aI4
aI4
aI4
aI4
aI4
aI4
aI4
aI4
aI4
aI4
aI4
aI4
aI4
aI4
aI4
aI4
aI4
aI4
aI4
aI4
aI4
aI4
aI4
aI4
aI4
aI4
aI4
aI4
aI4
aI4
aI4
aI4
aI4
aI4
aI4
aI4
aI4
aI4
aI4
aI4
aI4
aI4
aI4
aI4
aI4
aI4
aI4
aI4
aI4
aI4
aI4
aI4
aI4
aI4
aI4
aI4
aI4
aI4
aI4
aI4
aI4
aI4
aI4
aI4
aI4
aI4
aI4
aI4
aI4
aI4
aI4
aI4
aI4
aI4
aI4
aI4
aI4
aI4
aI4
aI4
aI4
aI4
aI4
aI4
aI4
aI4
aI4
aI4
aI4
aI4
aI4
aI4
aI4
aI4
aI4
aI4
aI4
aI4
aI4
aI4
aI4
aI4
aI4
aI4
aI4
aI4
aI4
aI4
aI4
aI4
aI4
aI4
aI4
aI4
aI4
aI4
aI4
aI4
aI4
aI4
aI4
aI4
aI4
aI4
aI4
aI4
aI4
aI4
aI4
aI4
aI4
aI4
aI4
aI4
aI4
aI4
aI4
aI4
aI4
aI4
aI4
aI4
aI4
aI4
aI4
aI4
aI4
aI4
aI4
aI4
aI4
aI4
aI4
aI4
aI4
aI4
aI4
aI4
aI4
aI4
aI4
aI4
aI4
aI4
aI4
aI4
aI4
aI4
aI4
aI4
aI4
aI4
aI4
aI4
aI4
aI4
aI4
aI4
aI4
aI4
aI4
aI4
aI4
aI4
aI4
aI4
aI4
aI4
aI4
aI4
aI4
aI4
aI4
aI4
aI4
aI4
aI4
aI4
aI4
aI4
aI4
aI4
aI4
aI4
aI4
aI4
aI4
aI4
aI4
aI4
aI4
aI4
aI4
aI4
aI4
aI4
aI4
aI4
aI4
aI4
aI4
aI4
aI4
aI4
aI4
aI4
aI4
aI4
aI4
aI4
aI4
aI4
aI4
aI4
aI4
aI4
aI4
aI4
aI4
aI4
aI4
aI4
aI4
aI4
aI4
aI4
aI4
aI4
aI4
aI4
aI4
aI4
aI4
aI4
aI4
aI4
aI4
aI4
aI4
aI4
aI4
asg18
S'(Progressive & Art-Rock) King Crimson - \xd0\x94\xd0\xb8\xd1\x81\xd0\xba\xd0\xbe\xd0\xb3\xd1\x80\xd0\xb0\xd1\x84\xd0\xb8\xd1\x8f Discography (36 Albums, 76CD), 1969 - 2010, MP3, 320 kbps [rutracker-3345611].torrent'
p312
sg20
F-1
sg21
S'/home/ak/Music'
p313
sg23
F1556215047.6491311
sg24
I317477
sg25
S'37ab8726d540168b04fe9c062d9e4e7a7587d88f'
p314
sg27
I01
sg28
I00
sg29
I00
sg30
(lp315
(dp316
S'send_stats'
p317
I01
sS'fails'
p318
I0
sS'verified'
p319
I00
sS'scrape_incomplete'
p320
I-1
sS'min_announce'
p321
NsS'source'
p322
I1
sS'url'
p323
S'http://bt4.t-ru.org/ann'
p324
sS'last_error'
p325
(dp326
S'category'
p327
S'system'
p328
sS'value'
p329
I0
ssS'fail_limit'
p330
I0
sS'next_announce'
p331
NsS'complete_sent'
p332
I00
sS'scrape_downloaded'
p333
I-1
sS'trackerid'
p334
S''
sS'start_sent'
p335
I00
sS'tier'
p336
I0
sS'scrape_complete'
p337
I-1
sS'message'
p338
S''
sS'updating'
p339
I00
sa(dp340
S'send_stats'
p341
I01
sS'fails'
p342
I0
sS'verified'
p343
I00
sS'scrape_incomplete'
p344
I-1
sS'min_announce'
p345
NsS'source'
p346
I1
sS'url'
p347
S'http://retracker.local/announce'
p348
sS'last_error'
p349
(dp350
S'category'
p351
S'system'
p352
sS'value'
p353
I0
ssS'fail_limit'
p354
I0
sS'next_announce'
p355
NsS'complete_sent'
p356
I00
sS'scrape_downloaded'
p357
I-1
sS'trackerid'
p358
S''
sS'start_sent'
p359
I00
sS'tier'
p360
I1
sS'scrape_complete'
p361
I-1
sS'message'
p362
S''
sS'updating'
p363
I00
sasg80
Nsg81
I00
sg82
F2
sg83
I01
sba(ideluge.core.torrentmanager
TorrentState
p364
(dp365
g7
F-1
sg8
S'/home/ak/Downloads'
p366
sg10
I00
sg11
I-1
sg12
I00
sg13
I-1
sg14
I00
sg15
I-1
sg16
(lp367
I4
aI4
aI4
aI4
aI4
aI4
aI4
aI4
aI4
aI4
aI4
aI4
aI4
aI4
aI4
aI4
aI4
aI4
aI4
aI4
aI4
aI4
aI4
aI4
aI4
aI4
aI4
aI4
aI4
aI4
aI4
aI4
aI4
aI4
aI4
aI4
aI4
aI4
aI4
aI4
aI4
aI4
aI4
aI4
aI4
aI4
aI4
aI4
aI4
aI4
aI4
aI4
aI4
aI4
aI4
aI4
aI4
aI4
aI4
aI4
aI4
aI4
aI4
aI4
aI4
aI4
aI4
aI4
aI4
aI4
aI4
aI4
aI4
aI4
aI4
aI4
aI4
aI4
aI4
aI4
aI4
aI4
aI4
aI4
asg18
S'(Progressive Rock Art Rock) Earth and Fire -7 \xd0\x90\xd0\xbb\xd1\x8c\xd0\xb1\xd0\xbe\xd0\xbc\xd0\xbe\xd0\xb2 (1970-1981) , MP3 , 320 kbps [rutracker-1441675].torrent'
p368
sg20
F-1
sg21
S'/home/ak/Downloads'
p369
sg23
F1556231260.62604
sg24
I0
sg25
S'3af7dda4918301b18063a23758caa985cfd81add'
p370
sg27
I01
sg28
I00
sg29
I00
sg30
(lp371
(dp372
S'send_stats'
p373
I01
sS'fails'
p374
I0
sS'verified'
p375
I00
sS'scrape_incomplete'
p376
I-1
sS'min_announce'
p377
NsS'source'
p378
I1
sS'url'
p379
S'http://bt2.t-ru.org/ann'
p380
sS'last_error'
p381
(dp382
S'category'
p383
S'system'
p384
sS'value'
p385
I0
ssS'fail_limit'
p386
I0
sS'next_announce'
p387
NsS'complete_sent'
p388
I00
sS'scrape_downloaded'
p389
I-1
sS'trackerid'
p390
S''
sS'start_sent'
p391
I00
sS'tier'
p392
I0
sS'scrape_complete'
p393
I-1
sS'message'
p394
S''
sS'updating'
p395
I00
sa(dp396
S'send_stats'
p397
I01
sS'fails'
p398
I0
sS'verified'
p399
I00
sS'scrape_incomplete'
p400
I-1
sS'min_announce'
p401
NsS'source'
p402
I1
sS'url'
p403
S'http://retracker.local/announce'
p404
sS'last_error'
p405
(dp406
S'category'
p407
S'system'
p408
sS'value'
p409
I0
ssS'fail_limit'
p410
I0
sS'next_announce'
p411
NsS'complete_sent'
p412
I00
sS'scrape_downloaded'
p413
I-1
sS'trackerid'
p414
S''
sS'start_sent'
p415
I00
sS'tier'
p416
I1
sS'scrape_complete'
p417
I-1
sS'message'
p418
S''
sS'updating'
p419
I00
sasg80
Nsg81
I00
sg82
F2
sg83
I01
sbasb.